000020d4 d BSET
000049d0 r C$12$8599
000049c4 r C$15$8613
000049b8 r C$17$8620
000049ac r C$18$8621
00002af8 r C$3$2190
000049a0 r C$31$8722
00004998 r C$43$8820
00000004 C CASDEBUG
00005a10 r CA_ECHO_TIMEOUT
000f4418 t ClockTimeGetCurrent
00004b1c b ClockTimePvt
000f464c t ClockTimeSync
000f40bc T ClockTime_GetProgramStart
000f451c T ClockTime_Init
000f48e4 t ClockTime_InitOnce
000f40d8 T ClockTime_Report
000f43a8 T ClockTime_Shutdown
00005474 R DBR_XXXXToEpicsType
00007400 R EPICS_AR_PORT
000073a8 R EPICS_BUILD_COMPILER_CLASS
000073b0 R EPICS_BUILD_OS_CLASS
000073b8 R EPICS_BUILD_TARGET_ARCH
00007378 R EPICS_CAS_AUTO_BEACON_ADDR_LIST
00007380 R EPICS_CAS_BEACON_ADDR_LIST
00007398 R EPICS_CAS_BEACON_PERIOD
000073a0 R EPICS_CAS_BEACON_PORT
00007370 R EPICS_CAS_IGNORE_ADDR_LIST
00007368 R EPICS_CAS_INTF_ADDR_LIST
00007388 R EPICS_CAS_SERVER_PORT
00007328 R EPICS_CA_ADDR_LIST
00007338 R EPICS_CA_AUTO_ADDR_LIST
00007390 R EPICS_CA_BEACON_PERIOD
00007330 R EPICS_CA_CONN_TMO
00007350 R EPICS_CA_MAX_ARRAY_BYTES
00007358 R EPICS_CA_MAX_SEARCH_PERIOD
00007360 R EPICS_CA_NAME_SERVERS
00007340 R EPICS_CA_REPEATER_PORT
00007348 R EPICS_CA_SERVER_PORT
000073f8 R EPICS_CMD_PROTO_PORT
000073f0 R EPICS_IOC_LOG_FILE_COMMAND
000073e0 R EPICS_IOC_LOG_FILE_LIMIT
000073e8 R EPICS_IOC_LOG_FILE_NAME
000073d8 R EPICS_IOC_LOG_INET
000073d0 R EPICS_IOC_LOG_PORT
000073c0 R EPICS_TIMEZONE
000073c8 R EPICS_TS_NTP_INET
00002978 r EVENT_PEND_NAME
00045cb8 t FIND_CONT_NODE
00001ec4 d FirstFlag$4568
000020cc d FirstFlag$4588
00007410 R IOCSH_HISTSIZE
00007408 R IOCSH_PS1
000003b4 d Ifldnames
00084250 t MPTOPCIU
000f32c0 t NTPTimeGetCurrent
00004ae0 b NTPTimePvt
000f3474 t NTPTimeSync
000f3090 T NTPTime_Init
000f30d4 t NTPTime_InitOnce
000f2db4 T NTPTime_Report
000f3020 T NTPTime_Shutdown
00000408 d Ofldnames
0005ec5c t ProcessCallback
00007f5c r ReportArg0
00007f80 r ReportArg0
00007f58 r ReportArgs
00007f7c r ReportArgs
000f2ff0 t ReportCallFunc
000f4378 t ReportCallFunc
00007f40 r ReportFuncDef
00007f64 r ReportFuncDef
000f3060 t ShutdownCallFunc
000f43e8 t ShutdownCallFunc
00007f4c r ShutdownFuncDef
00007f70 r ShutdownFuncDef
000cd0bc T SingletonMutexOnce
000d6c74 t Strdup
000654ec T _GLOBAL__D__ZN9dbService13contextCreateER10epicsMutexS1_R16cacContextNotify
0009e224 T _GLOBAL__D_localHostNameCache
000b82fc T _GLOBAL__D_noopIIU
000ee3b4 T _GLOBAL__D_timerQueueMgrEPICS
000bf49c T _GLOBAL__I__ZN14repeaterClientC2ERK11osiSockAddr
000de5bc T _GLOBAL__I__ZN18epicsThreadRunableD2Ev
00065524 T _GLOBAL__I__ZN9dbService13contextCreateER10epicsMutexS1_R16cacContextNotify
000007b4 T _GLOBAL__I_autoOnOff_registerRecordDeviceDriver
000e4164 T _GLOBAL__I_epicsNAN
000d4074 T _GLOBAL__I_iocshPpdbbase
0009e1ec T _GLOBAL__I_localHostNameCache
000b8334 T _GLOBAL__I_noopIIU
000e899c T _GLOBAL__I_osdNTPGet
000ee3ec T _GLOBAL__I_timerQueueMgrEPICS
         U _Unwind_Resume
000bf54c t _Z10makeSockettbPi
000c0428 T _Z11ca_repeaterv
000bf7d4 t _Z13verifyClientsR10tsFreeListI14repeaterClientLj32E10epicsMutexE
0008f858 T _Z18fetchClientContextPP17ca_client_context
000c0058 t _Z19register_new_clientR11osiSockAddrR10tsFreeListI14repeaterClientLj32E10epicsMutexE
00096458 T _Z23caInstallDefaultServiceR10cacService
000a94d8 T _Z29caRepeaterRegistrationMessageijj
000a9294 T _Z29caStartRepeaterIfNotInstalledj
00000000 t _Z41__static_initialization_and_destruction_0ii
00065458 t _Z41__static_initialization_and_destruction_0ii
0009e1bc t _Z41__static_initialization_and_destruction_0ii
000b8274 t _Z41__static_initialization_and_destruction_0ii
000bf468 t _Z41__static_initialization_and_destruction_0ii
000d3f8c t _Z41__static_initialization_and_destruction_0ii
000de560 t _Z41__static_initialization_and_destruction_0ii
000e4124 t _Z41__static_initialization_and_destruction_0ii
000e87f0 t _Z41__static_initialization_and_destruction_0ii
000ee384 t _Z41__static_initialization_and_destruction_0ii
000bfb54 t _Z6fanOutRK11osiSockAddrPKvjR10tsFreeListI14repeaterClientLj32E10epicsMutexE
00002c20 b _ZGVZ13verifyClientsR10tsFreeListI14repeaterClientLj32E10epicsMutexEE10theClients
00002c38 b _ZGVZ6fanOutRK11osiSockAddrPKvjR10tsFreeListI14repeaterClientLj32E10epicsMutexEE10theClients
00004190 b _ZGVZN9epicsTimeC1ERK14time_t_wrapperE3lti
00002bd8 b _ZGVZNK10cacChannel12accessRightsER10epicsGuardI10epicsMutexEE2ar
00004180 b _ZGVZNK9epicsTimecv14time_t_wrapperEvE3lti
00000000 W _ZN10SearchDest8CallbackD0Ev
00000000 W _ZN10SearchDest8CallbackD1Ev
00000000 W _ZN10SearchDestD0Ev
00000000 W _ZN10SearchDestD1Ev
00005430 R _ZN10cacChannel11priorityMaxE
00005434 R _ZN10cacChannel11priorityMinE
00005444 R _ZN10cacChannel11priorityOPIE
00005440 R _ZN10cacChannel15priorityArchiveE
00005438 R _ZN10cacChannel15priorityDefaultE
0000543c R _ZN10cacChannel15priorityLinksDBE
0008ed50 T _ZN10cacChannelD0Ev
0008ed88 T _ZN10cacChannelD1Ev
0008ed98 T _ZN10cacChannelD2Ev
0008ecf8 T _ZN10cacContextD0Ev
0008ed30 T _ZN10cacContextD1Ev
0008ed40 T _ZN10cacContextD2Ev
00000000 W _ZN10cacRecycleD0Ev
00000000 W _ZN10cacRecycleD1Ev
0008eca0 T _ZN10cacServiceD0Ev
0008ecd8 T _ZN10cacServiceD1Ev
0008ece8 T _ZN10cacServiceD2Ev
000bc6cc T _ZN10comQueRecv11removeBytesEj
000bc154 T _ZN10comQueRecv12copyOutBytesEPcj
000bc29c T _ZN10comQueRecv15popOldMsgHeaderER15caHdrLargeArray
000bbbb0 T _ZN10comQueRecv19removeAndDestroyBufER6comBuf
000bbfb8 T _ZN10comQueRecv20multiBufferPopUInt16Ev
000bbdd8 T _ZN10comQueRecv20multiBufferPopUInt32Ev
000bc544 T _ZN10comQueRecv22pushLastComBufReceivedER6comBuf
000bba70 T _ZN10comQueRecv5clearEv
000bbc84 T _ZN10comQueRecv8popUInt8Ev
000bbd6c T _ZN10comQueRecv9popStringEPA40_c
000bc058 T _ZN10comQueRecv9popUInt16Ev
000bbebc T _ZN10comQueRecv9popUInt32Ev
000bc6b0 T _ZN10comQueRecvC1ER19comBufMemoryManager
000bbc68 T _ZN10comQueRecvC2ER19comBufMemoryManager
000bbb58 T _ZN10comQueRecvD1Ev
000bbb84 T _ZN10comQueRecvD2Ev
000bdd9c T _ZN10comQueSend13copy_dbr_charEPKv
000bce5c T _ZN10comQueSend13copy_dbr_charEPKvj
000bdc60 T _ZN10comQueSend13copy_dbr_longEPKv
000bd528 T _ZN10comQueSend13copy_dbr_longEPKvj
00005a20 R _ZN10comQueSend13dbrCopyScalarE
00005b58 R _ZN10comQueSend13dbrCopyVectorE
000bd664 T _ZN10comQueSend14copy_dbr_floatEPKv
000bcfdc T _ZN10comQueSend14copy_dbr_floatEPKvj
000bde98 T _ZN10comQueSend14copy_dbr_shortEPKv
000bd118 T _ZN10comQueSend14copy_dbr_shortEPKvj
000bd254 T _ZN10comQueSend15copy_dbr_doubleEPKv
000bd3ec T _ZN10comQueSend15copy_dbr_doubleEPKvj
000bcccc T _ZN10comQueSend15copy_dbr_stringEPKv
000be488 T _ZN10comQueSend15copy_dbr_stringEPKvj
000bc858 T _ZN10comQueSend16copy_dbr_invalidEPKv
000bc81c T _ZN10comQueSend16copy_dbr_invalidEPKvj
000bcb70 T _ZN10comQueSend18clearUncommitedMsgEv
000bd79c T _ZN10comQueSend19insertRequestHeaderEtjtjjjb
000bc894 T _ZN10comQueSend19popNextComBufToSendEv
000bdfa8 T _ZN10comQueSend24insertRequestWithPayLoadEtjmjjPKvb
000bca00 T _ZN10comQueSend5clearEv
000bcc58 T _ZN10comQueSend9commitMsgEv
000bcca4 T _ZN10comQueSendC1ER15wireSendAdapterR19comBufMemoryManager
000bc7f4 T _ZN10comQueSendC2ER15wireSendAdapterR19comBufMemoryManager
000bcb18 T _ZN10comQueSendD1Ev
000bcb44 T _ZN10comQueSendD2Ev
00000000 W _ZN10epicsEvent16invalidSemaphoreD0Ev
00000000 W _ZN10epicsEvent16invalidSemaphoreD1Ev
000e120c T _ZN10epicsEvent4waitEd
000e0f98 T _ZN10epicsEvent4waitEv
000e10fc T _ZN10epicsEvent7triggerEv
000e1174 T _ZN10epicsEvent7tryWaitEv
000e12a4 T _ZN10epicsEventC1E22epicsEventInitialState
000e1014 T _ZN10epicsEventC2E22epicsEventInitialState
000e109c T _ZN10epicsEventD1Ev
000e10cc T _ZN10epicsEventD2Ev
00000000 W _ZN10epicsMutex12invalidMutexD0Ev
00000000 W _ZN10epicsMutex12invalidMutexD1Ev
00000000 W _ZN10epicsMutex17mutexCreateFailedD0Ev
00000000 W _ZN10epicsMutex17mutexCreateFailedD1Ev
000e0038 T _ZN10epicsMutex4lockEv
000e02c4 T _ZN10epicsMutex6unlockEv
000e01fc T _ZN10epicsMutex7tryLockEv
000e0c3c T _ZN10epicsMutexC1EPKci
000e095c T _ZN10epicsMutexC1Ev
000e08d0 T _ZN10epicsMutexC2EPKci
000e0bac T _ZN10epicsMutexC2Ev
000e0660 T _ZN10epicsMutexD1Ev
000e06e8 T _ZN10epicsMutexD2Ev
000eb4c8 T _ZN10epicsTimerD0Ev
000eb500 T _ZN10epicsTimerD1Ev
000eb510 T _ZN10epicsTimerD2Ev
000f4eac T _ZN10timerQueue11createTimerEv
000f4f4c T _ZN10timerQueue14printExceptMsgEPKcRKSt9type_info
000f4dec T _ZN10timerQueue15createTimerForCEPFvPvES0_
00007f88 R _ZN10timerQueue18exceptMsgMinPeriodE
000f57b8 T _ZN10timerQueue7processERK9epicsTime
000f5f40 T _ZN10timerQueueC1ER21epicsTimerQueueNotify
000f5d68 T _ZN10timerQueueC2ER21epicsTimerQueueNotify
000f52d8 T _ZN10timerQueueD0Ev
000f54c0 T _ZN10timerQueueD1Ev
000f5104 T _ZN10timerQueueD2Ev
00000000 W _ZN10tsFreeListI11dbChannelIOLj256E14epicsMutexNOOPE20allocateFromNewChunkEv
00000000 W _ZN10tsFreeListI11dbChannelIOLj256E14epicsMutexNOOPE7releaseEPv
00000000 W _ZN10tsFreeListI11dbChannelIOLj256E14epicsMutexNOOPE8allocateEj
00000000 W _ZN10tsFreeListI11dbChannelIOLj256E14epicsMutexNOOPED1Ev
00000000 W _ZN10tsFreeListI11getCallbackLj1024E14epicsMutexNOOPE20allocateFromNewChunkEv
00000000 W _ZN10tsFreeListI11getCallbackLj1024E14epicsMutexNOOPE7releaseEPv
00000000 W _ZN10tsFreeListI11getCallbackLj1024E14epicsMutexNOOPE8allocateEj
00000000 W _ZN10tsFreeListI11getCallbackLj1024E14epicsMutexNOOPED1Ev
00000000 W _ZN10tsFreeListI11putCallbackLj1024E14epicsMutexNOOPE20allocateFromNewChunkEv
00000000 W _ZN10tsFreeListI11putCallbackLj1024E14epicsMutexNOOPE7releaseEPv
00000000 W _ZN10tsFreeListI11putCallbackLj1024E14epicsMutexNOOPE8allocateEj
00000000 W _ZN10tsFreeListI11putCallbackLj1024E14epicsMutexNOOPED1Ev
00000000 W _ZN10tsFreeListI14epicsTimerForCLj32E10epicsMutexE20allocateFromNewChunkEv
00000000 W _ZN10tsFreeListI14epicsTimerForCLj32E10epicsMutexE7releaseEPv
00000000 W _ZN10tsFreeListI14epicsTimerForCLj32E10epicsMutexE7releaseEPvj
00000000 W _ZN10tsFreeListI14epicsTimerForCLj32E10epicsMutexE8allocateEj
00000000 W _ZN10tsFreeListI14epicsTimerForCLj32E10epicsMutexEC1Ev
00000000 W _ZN10tsFreeListI14epicsTimerForCLj32E10epicsMutexEC2Ev
00000000 W _ZN10tsFreeListI14epicsTimerForCLj32E10epicsMutexED1Ev
00000000 W _ZN10tsFreeListI14epicsTimerForCLj32E10epicsMutexED2Ev
00000000 W _ZN10tsFreeListI14repeaterClientLj32E10epicsMutexE20allocateFromNewChunkEv
00000000 W _ZN10tsFreeListI14repeaterClientLj32E10epicsMutexE7releaseEPv
00000000 W _ZN10tsFreeListI14repeaterClientLj32E10epicsMutexE8allocateEj
00000000 W _ZN10tsFreeListI14repeaterClientLj32E10epicsMutexED1Ev
00000000 W _ZN10tsFreeListI15netReadNotifyIOLj1024E14epicsMutexNOOPE20allocateFromNewChunkEv
00000000 W _ZN10tsFreeListI15netReadNotifyIOLj1024E14epicsMutexNOOPE7releaseEPv
00000000 W _ZN10tsFreeListI15netReadNotifyIOLj1024E14epicsMutexNOOPE8allocateEj
00000000 W _ZN10tsFreeListI15netReadNotifyIOLj1024E14epicsMutexNOOPED1Ev
00000000 W _ZN10tsFreeListI15netSubscriptionLj1024E14epicsMutexNOOPE20allocateFromNewChunkEv
00000000 W _ZN10tsFreeListI15netSubscriptionLj1024E14epicsMutexNOOPE7releaseEPv
00000000 W _ZN10tsFreeListI15netSubscriptionLj1024E14epicsMutexNOOPE8allocateEj
00000000 W _ZN10tsFreeListI15netSubscriptionLj1024E14epicsMutexNOOPED1Ev
00000000 W _ZN10tsFreeListI15oldSubscriptionLj1024E14epicsMutexNOOPE20allocateFromNewChunkEv
00000000 W _ZN10tsFreeListI15oldSubscriptionLj1024E14epicsMutexNOOPE7releaseEPv
00000000 W _ZN10tsFreeListI15oldSubscriptionLj1024E14epicsMutexNOOPE8allocateEj
00000000 W _ZN10tsFreeListI15oldSubscriptionLj1024E14epicsMutexNOOPED1Ev
00000000 W _ZN10tsFreeListI16dbSubscriptionIOLj256E14epicsMutexNOOPE20allocateFromNewChunkEv
00000000 W _ZN10tsFreeListI16dbSubscriptionIOLj256E14epicsMutexNOOPE7releaseEPv
00000000 W _ZN10tsFreeListI16dbSubscriptionIOLj256E14epicsMutexNOOPE8allocateEj
00000000 W _ZN10tsFreeListI16dbSubscriptionIOLj256E14epicsMutexNOOPED1Ev
00000000 W _ZN10tsFreeListI16netWriteNotifyIOLj1024E14epicsMutexNOOPE20allocateFromNewChunkEv
00000000 W _ZN10tsFreeListI16netWriteNotifyIOLj1024E14epicsMutexNOOPE7releaseEPv
00000000 W _ZN10tsFreeListI16netWriteNotifyIOLj1024E14epicsMutexNOOPE8allocateEj
00000000 W _ZN10tsFreeListI16netWriteNotifyIOLj1024E14epicsMutexNOOPED1Ev
00000000 W _ZN10tsFreeListI16oldChannelNotifyLj1024E14epicsMutexNOOPE20allocateFromNewChunkEv
00000000 W _ZN10tsFreeListI16oldChannelNotifyLj1024E14epicsMutexNOOPE7releaseEPv
00000000 W _ZN10tsFreeListI16oldChannelNotifyLj1024E14epicsMutexNOOPE8allocateEj
00000000 W _ZN10tsFreeListI16oldChannelNotifyLj1024E14epicsMutexNOOPED1Ev
00000000 W _ZN10tsFreeListI18dbPutNotifyBlockerLj64E14epicsMutexNOOPE20allocateFromNewChunkEv
00000000 W _ZN10tsFreeListI18dbPutNotifyBlockerLj64E14epicsMutexNOOPE7releaseEPv
00000000 W _ZN10tsFreeListI18dbPutNotifyBlockerLj64E14epicsMutexNOOPE8allocateEj
00000000 W _ZN10tsFreeListI18dbPutNotifyBlockerLj64E14epicsMutexNOOPED1Ev
00000000 W _ZN10tsFreeListI19syncGroupReadNotifyLj128E14epicsMutexNOOPE20allocateFromNewChunkEv
00000000 W _ZN10tsFreeListI19syncGroupReadNotifyLj128E14epicsMutexNOOPE7releaseEPv
00000000 W _ZN10tsFreeListI19syncGroupReadNotifyLj128E14epicsMutexNOOPE8allocateEj
00000000 W _ZN10tsFreeListI19syncGroupReadNotifyLj128E14epicsMutexNOOPED1Ev
00000000 W _ZN10tsFreeListI20syncGroupWriteNotifyLj128E14epicsMutexNOOPE20allocateFromNewChunkEv
00000000 W _ZN10tsFreeListI20syncGroupWriteNotifyLj128E14epicsMutexNOOPE7releaseEPv
00000000 W _ZN10tsFreeListI20syncGroupWriteNotifyLj128E14epicsMutexNOOPE8allocateEj
00000000 W _ZN10tsFreeListI20syncGroupWriteNotifyLj128E14epicsMutexNOOPED1Ev
00000000 W _ZN10tsFreeListI23msgForMultiplyDefinedPVLj16E10epicsMutexE20allocateFromNewChunkEv
00000000 W _ZN10tsFreeListI23msgForMultiplyDefinedPVLj16E10epicsMutexE7releaseEPv
00000000 W _ZN10tsFreeListI23msgForMultiplyDefinedPVLj16E10epicsMutexE7releaseEPvj
00000000 W _ZN10tsFreeListI23msgForMultiplyDefinedPVLj16E10epicsMutexE8allocateEj
00000000 W _ZN10tsFreeListI23msgForMultiplyDefinedPVLj16E10epicsMutexED1Ev
00000000 W _ZN10tsFreeListI31ipAddrToAsciiTransactionPrivateLj128E10epicsMutexE20allocateFromNewChunkEv
00000000 W _ZN10tsFreeListI31ipAddrToAsciiTransactionPrivateLj128E10epicsMutexE7releaseEPv
00000000 W _ZN10tsFreeListI31ipAddrToAsciiTransactionPrivateLj128E10epicsMutexE7releaseEPvj
00000000 W _ZN10tsFreeListI31ipAddrToAsciiTransactionPrivateLj128E10epicsMutexE8allocateEj
00000000 W _ZN10tsFreeListI31ipAddrToAsciiTransactionPrivateLj128E10epicsMutexEC1Ev
00000000 W _ZN10tsFreeListI31ipAddrToAsciiTransactionPrivateLj128E10epicsMutexEC2Ev
00000000 W _ZN10tsFreeListI31ipAddrToAsciiTransactionPrivateLj128E10epicsMutexED1Ev
00000000 W _ZN10tsFreeListI31ipAddrToAsciiTransactionPrivateLj128E10epicsMutexED2Ev
00000000 W _ZN10tsFreeListI3bheLj256E10epicsMutexE20allocateFromNewChunkEv
00000000 W _ZN10tsFreeListI3bheLj256E10epicsMutexE7releaseEPv
00000000 W _ZN10tsFreeListI3bheLj256E10epicsMutexE8allocateEj
00000000 W _ZN10tsFreeListI3bheLj256E10epicsMutexED1Ev
00000000 W _ZN10tsFreeListI4CASGLj128E14epicsMutexNOOPED1Ev
00000000 W _ZN10tsFreeListI4nciuLj1024E14epicsMutexNOOPE20allocateFromNewChunkEv
00000000 W _ZN10tsFreeListI4nciuLj1024E14epicsMutexNOOPE7releaseEPv
00000000 W _ZN10tsFreeListI4nciuLj1024E14epicsMutexNOOPE7releaseEPvj
00000000 W _ZN10tsFreeListI4nciuLj1024E14epicsMutexNOOPE8allocateEj
00000000 W _ZN10tsFreeListI4nciuLj1024E14epicsMutexNOOPED1Ev
00000000 W _ZN10tsFreeListI5timerLj32E10epicsMutexE20allocateFromNewChunkEv
00000000 W _ZN10tsFreeListI5timerLj32E10epicsMutexE7releaseEPv
00000000 W _ZN10tsFreeListI5timerLj32E10epicsMutexE7releaseEPvj
00000000 W _ZN10tsFreeListI5timerLj32E10epicsMutexE8allocateEj
00000000 W _ZN10tsFreeListI5timerLj32E10epicsMutexEC1Ev
00000000 W _ZN10tsFreeListI5timerLj32E10epicsMutexEC2Ev
00000000 W _ZN10tsFreeListI5timerLj32E10epicsMutexED1Ev
00000000 W _ZN10tsFreeListI5timerLj32E10epicsMutexED2Ev
00000000 W _ZN10tsFreeListI6comBufLj32E10epicsMutexE20allocateFromNewChunkEv
00000000 W _ZN10tsFreeListI6comBufLj32E10epicsMutexE7releaseEPv
00000000 W _ZN10tsFreeListI6comBufLj32E10epicsMutexE8allocateEj
00000000 W _ZN10tsFreeListI6comBufLj32E10epicsMutexED1Ev
00000000 W _ZN10tsFreeListI6tcpiiuLj32E14epicsMutexNOOPE20allocateFromNewChunkEv
00000000 W _ZN10tsFreeListI6tcpiiuLj32E14epicsMutexNOOPE7releaseEPv
00000000 W _ZN10tsFreeListI6tcpiiuLj32E14epicsMutexNOOPE8allocateEj
00000000 W _ZN10tsFreeListI6tcpiiuLj32E14epicsMutexNOOPED1Ev
00000000 W _ZN10tsFreeListI7getCopyLj1024E14epicsMutexNOOPE20allocateFromNewChunkEv
00000000 W _ZN10tsFreeListI7getCopyLj1024E14epicsMutexNOOPE7releaseEPv
00000000 W _ZN10tsFreeListI7getCopyLj1024E14epicsMutexNOOPE8allocateEj
00000000 W _ZN10tsFreeListI7getCopyLj1024E14epicsMutexNOOPED1Ev
000a795c T _ZN11channelNode18setReqPendingStateER10epicsGuardI10epicsMutexEj
000a81b8 T _ZN11channelNode19getSearchTimerIndexER10epicsGuardI10epicsMutexE
000a7f44 T _ZN11channelNode19setRespPendingStateER10epicsGuardI10epicsMutexEj
000a5da0 T _ZN11channelNode22getMaxSearchTimerCountEv
000676a8 T _ZN11dbChannelIO10destructorER13CallbackGuardR10epicsGuardI10epicsMutexE
00067768 T _ZN11dbChannelIO15initiateConnectER10epicsGuardI10epicsMutexE
00066b74 T _ZN11dbChannelIO26requestMessageBytesPendingER10epicsGuardI10epicsMutexE
000675a4 T _ZN11dbChannelIO4readER10epicsGuardI10epicsMutexEjmR13cacReadNotifyPj
00066b70 T _ZN11dbChannelIO5flushER10epicsGuardI10epicsMutexE
00067868 T _ZN11dbChannelIO5writeER10epicsGuardI10epicsMutexEjmPKv
000673f4 T _ZN11dbChannelIO5writeER10epicsGuardI10epicsMutexEjmPKvR14cacWriteNotifyPj
0006750c T _ZN11dbChannelIO7destroyER13CallbackGuardR10epicsGuardI10epicsMutexE
00067270 T _ZN11dbChannelIO8ioCancelER13CallbackGuardR10epicsGuardI10epicsMutexERKj
00067318 T _ZN11dbChannelIO9subscribeER10epicsGuardI10epicsMutexEjmjR14cacStateNotifyPj
00066e44 T _ZN11dbChannelIOC1ER10epicsMutexR16cacChannelNotifyP9dbChannelR9dbContext
00066e0c T _ZN11dbChannelIOC2ER10epicsMutexR16cacChannelNotifyP9dbChannelR9dbContext
00066e7c T _ZN11dbChannelIOD0Ev
00066f40 T _ZN11dbChannelIOD1Ev
00066d5c T _ZN11dbChannelIOD2Ev
00066bb4 T _ZN11dbChannelIOdlEPv
00066b7c T _ZN11dbChannelIOdlEPvR10tsFreeListIS_Lj256E14epicsMutexNOOPE
00066bf8 T _ZN11dbChannelIOnwEjR10tsFreeListIS_Lj256E14epicsMutexNOOPE
000deb0c T _ZN11epicsThread11getNameSelfEv
000de9c0 T _ZN11epicsThread11isOkToBlockEv
000decdc T _ZN11epicsThread11setPriorityEj
000debb4 T _ZN11epicsThread11suspendSelfEv
000de96c T _ZN11epicsThread12setOkToBlockEb
00000000 W _ZN11epicsThread20unableToCreateThreadD0Ev
00000000 W _ZN11epicsThread20unableToCreateThreadD1Ev
000df08c T _ZN11epicsThread31printLastChanceExceptionMessageEPKcS1_
000dead0 T _ZN11epicsThread4exitEv
000deb60 T _ZN11epicsThread5sleepEd
000dee3c T _ZN11epicsThread5startEv
000dede4 T _ZN11epicsThread6resumeEv
000df354 T _ZN11epicsThread8exitWaitEd
000dfae8 T _ZN11epicsThread8exitWaitEv
000dfb8c T _ZN11epicsThread9beginWaitEv
000deedc T _ZN11epicsThreadC1ER18epicsThreadRunablePKcjj
000df1a4 T _ZN11epicsThreadC2ER18epicsThreadRunablePKcjj
000df738 T _ZN11epicsThreadD1Ev
000df910 T _ZN11epicsThreadD2Ev
0009a838 T _ZN11getCallback10completionER10epicsGuardI10epicsMutexEjmPKv
0009a97c T _ZN11getCallback9exceptionER10epicsGuardI10epicsMutexEiPKcjm
0009a81c T _ZN11getCallbackC1ER16oldChannelNotifyPFv18event_handler_argsEPv
0009a6f4 T _ZN11getCallbackC2ER16oldChannelNotifyPFv18event_handler_argsEPv
0009a754 T _ZN11getCallbackD0Ev
0009a7ac T _ZN11getCallbackD1Ev
0009a7e4 T _ZN11getCallbackD2Ev
0009a710 T _ZN11getCallbackdlEPv
0009b200 T _ZN11putCallback10completionER10epicsGuardI10epicsMutexE
0009b32c T _ZN11putCallback9exceptionER10epicsGuardI10epicsMutexEiPKcjm
0009b1e4 T _ZN11putCallbackC1ER16oldChannelNotifyPFv18event_handler_argsEPv
0009b0bc T _ZN11putCallbackC2ER16oldChannelNotifyPFv18event_handler_argsEPv
0009b11c T _ZN11putCallbackD0Ev
0009b174 T _ZN11putCallbackD1Ev
0009b1ac T _ZN11putCallbackD2Ev
0009b0d8 T _ZN11putCallbackdlEPv
000c0ea4 T _ZN11searchTimer12moveChannelsER10epicsGuardI10epicsMutexERS_
000c1ccc T _ZN11searchTimer13uninstallChanER10epicsGuardI10epicsMutexER4nciu
000c0860 T _ZN11searchTimer14installChannelER10epicsGuardI10epicsMutexER4nciu
000c2238 T _ZN11searchTimer42uninstallChanDueToSuccessfulSearchResponseER10epicsGuardI10epicsMutexER4nciujbRK9epicsTime
000c1c18 T _ZN11searchTimer5startER10epicsGuardI10epicsMutexE
000c1664 T _ZN11searchTimer6expireERK9epicsTime
000c10a4 T _ZN11searchTimer8shutdownER10epicsGuardI10epicsMutexES3_
000c0d68 T _ZN11searchTimerC1ER17searchTimerNotifyR15epicsTimerQueuejR10epicsMutexb
000c0c2c T _ZN11searchTimerC2ER17searchTimerNotifyR15epicsTimerQueuejR10epicsMutexb
000c0a10 T _ZN11searchTimerD0Ev
000c0b28 T _ZN11searchTimerD1Ev
000c090c T _ZN11searchTimerD2Ev
000bafec T _ZN12bheFreeStore7releaseEPv
000bb01c T _ZN12bheFreeStore8allocateEj
00000000 W _ZN12bheFreeStoreD0Ev
00000000 W _ZN12bheFreeStoreD1Ev
000b7b94 T _ZN13SearchDestTCP13searchRequestER10epicsGuardI10epicsMutexEPKcj
000ad7e8 T _ZN13SearchDestTCP6enableEv
000ad7d4 T _ZN13SearchDestTCP7disableEv
000ae054 T _ZN13SearchDestTCPC1ER3cacRK11osiSockAddr
000ad78c T _ZN13SearchDestTCPC2ER3cacRK11osiSockAddr
00000000 W _ZN13SearchDestTCPD0Ev
00000000 W _ZN13SearchDestTCPD1Ev
000a5a28 T _ZN13cacReadNotifyD0Ev
000a5a60 T _ZN13cacReadNotifyD1Ev
000a5a70 T _ZN13cacReadNotifyD2Ev
000becb0 T _ZN13hostNameCache19transactionCompleteEPKc
000be7b8 T _ZN13hostNameCache7destroyEv
000bea40 T _ZN13hostNameCacheC1ERK11osiSockAddrR19ipAddrToAsciiEngine
000beb78 T _ZN13hostNameCacheC2ERK11osiSockAddrR19ipAddrToAsciiEngine
000be7ec T _ZN13hostNameCacheD0Ev
000be8c0 T _ZN13hostNameCacheD1Ev
000be980 T _ZN13hostNameCacheD2Ev
0009e368 T _ZN13localHostNameC1Ev
0009e434 T _ZN13localHostNameC2Ev
0009e2f8 T _ZN13localHostNameD1Ev
0009e330 T _ZN13localHostNameD2Ev
000b2450 T _ZN13tcpRecvThread15validFillStatusER10epicsGuardI10epicsMutexERK12statusWireIO
000ad984 T _ZN13tcpRecvThread19interruptSocketRecvEv
000b3e24 T _ZN13tcpRecvThread3runEv
000adb2c T _ZN13tcpRecvThread5startEv
000b2198 T _ZN13tcpRecvThread7connectER10epicsGuardI10epicsMutexE
000adafc T _ZN13tcpRecvThread8exitWaitEd
000ada9c T _ZN13tcpRecvThread8exitWaitEv
000adddc T _ZN13tcpRecvThreadC1ER6tcpiiuR10epicsMutexR16cacContextNotifyPKcjj
000adfa0 T _ZN13tcpRecvThreadC2ER6tcpiiuR10epicsMutexR16cacContextNotifyPKcjj
000adb8c T _ZN13tcpRecvThreadD0Ev
000adbfc T _ZN13tcpRecvThreadD1Ev
000adc58 T _ZN13tcpRecvThreadD2Ev
000ad93c T _ZN13tcpSendThread19interruptSocketSendEv
000b4b14 T _ZN13tcpSendThread3runEv
000adb5c T _ZN13tcpSendThread5startEv
000adacc T _ZN13tcpSendThread8exitWaitEv
000ade90 T _ZN13tcpSendThreadC1ER6tcpiiuPKcjj
000adf18 T _ZN13tcpSendThreadC2ER6tcpiiuPKcjj
000adcb4 T _ZN13tcpSendThreadD0Ev
000add24 T _ZN13tcpSendThreadD1Ev
000add80 T _ZN13tcpSendThreadD2Ev
000aaeec T _ZN13udpRecvThread3runEv
000a979c T _ZN13udpRecvThread5startEv
000a976c T _ZN13udpRecvThread8exitWaitEd
000a98f4 T _ZN13udpRecvThreadC1ER6udpiiuR16cacContextNotifyR10epicsMutexPKcjj
000a998c T _ZN13udpRecvThreadC2ER6udpiiuR16cacContextNotifyR10epicsMutexPKcjj
000a97cc T _ZN13udpRecvThreadD0Ev
000a983c T _ZN13udpRecvThreadD1Ev
000a9898 T _ZN13udpRecvThreadD2Ev
000a5ad8 T _ZN14cacStateNotifyD0Ev
000a5b10 T _ZN14cacStateNotifyD1Ev
000a5b20 T _ZN14cacStateNotifyD2Ev
000a5a80 T _ZN14cacWriteNotifyD0Ev
000a5ab8 T _ZN14cacWriteNotifyD1Ev
000a5ac8 T _ZN14cacWriteNotifyD2Ev
00000000 W _ZN14epicsSingletonI13localHostNameE6_buildEv
00000000 W _ZN14epicsSingletonI13localHostNameE8_destroyEPv
00000000 W _ZN14epicsSingletonI19timerQueueActiveMgrE12getReferenceEv
00000000 W _ZN14epicsSingletonI19timerQueueActiveMgrE6_buildEv
00000000 W _ZN14epicsSingletonI19timerQueueActiveMgrE8_destroyEPv
00000000 W _ZN14epicsSingletonI19timerQueueActiveMgrE9referenceC1ERKS2_
00000000 W _ZN14epicsSingletonI19timerQueueActiveMgrE9referenceC1ERS1_
00000000 W _ZN14epicsSingletonI19timerQueueActiveMgrE9referenceC2ERKS2_
00000000 W _ZN14epicsSingletonI19timerQueueActiveMgrE9referenceC2ERS1_
00000000 W _ZN14epicsSingletonI19timerQueueActiveMgrE9referenceD1Ev
00000000 W _ZN14epicsSingletonI19timerQueueActiveMgrE9referenceD2Ev
00000000 W _ZN14epicsSingletonI19timerQueueActiveMgrE9referenceaSERKS2_
00000000 W _ZN14epicsSingletonI19timerQueueActiveMgrE9referencedeEv
00000000 W _ZN14epicsSingletonI19timerQueueActiveMgrE9referenceptEv
00000000 W _ZN14epicsSingletonI19timerQueueActiveMgrEC1Ev
00000000 W _ZN14epicsSingletonI19timerQueueActiveMgrEC2Ev
000eced0 T _ZN14epicsTimerForC6expireERK9epicsTime
000ec26c T _ZN14epicsTimerForC7destroyEv
000ec064 T _ZN14epicsTimerForCC1ER10timerQueuePFvPvES2_
000ec10c T _ZN14epicsTimerForCC2ER10timerQueuePFvPvES2_
000ebe8c T _ZN14epicsTimerForCD0Ev
000ebf3c T _ZN14epicsTimerForCD1Ev
000ebfd0 T _ZN14epicsTimerForCD2Ev
000ed0b0 T _ZN14epicsTimerForCdlEPv
000bfe34 T _ZN14repeaterClient11sendConfirmEv
000bfa8c T _ZN14repeaterClient11sendMessageEPKvj
000bf6bc T _ZN14repeaterClient6verifyEv
000bff3c T _ZN14repeaterClient7connectEv
000bf3f8 T _ZN14repeaterClientC1ERK11osiSockAddr
000bf430 T _ZN14repeaterClientC2ERK11osiSockAddr
000bf4d4 T _ZN14repeaterClientD1Ev
000bf510 T _ZN14repeaterClientD2Ev
000bfa48 T _ZN14repeaterClientdlEPv
000bf79c T _ZN14repeaterClientdlEPvR10tsFreeListIS_Lj32E10epicsMutexE
000bfa10 T _ZN14repeaterClientnwEjR10tsFreeListIS_Lj32E10epicsMutexE
000f50ac T _ZN15epicsTimerQueueD0Ev
000f50e4 T _ZN15epicsTimerQueueD1Ev
000f50f4 T _ZN15epicsTimerQueueD2Ev
000b8510 T _ZN15netReadNotifyIO10completionER10epicsGuardI10epicsMutexER10cacRecycle
000b8440 T _ZN15netReadNotifyIO10completionER10epicsGuardI10epicsMutexER10cacRecyclejmPKv
000b8740 T _ZN15netReadNotifyIO14isSubscriptionEv
000b8748 T _ZN15netReadNotifyIO23forceSubscriptionUpdateER10epicsGuardI10epicsMutexER4nciu
000b83d4 T _ZN15netReadNotifyIO7destroyER10epicsGuardI10epicsMutexER10cacRecycle
000b8598 T _ZN15netReadNotifyIO9exceptionER10epicsGuardI10epicsMutexER10cacRecycleiPKc
000b8660 T _ZN15netReadNotifyIO9exceptionER10epicsGuardI10epicsMutexER10cacRecycleiPKcjm
000b892c T _ZN15netReadNotifyIOC1ER21privateInterfaceForIOR13cacReadNotify
000b874c T _ZN15netReadNotifyIOC2ER21privateInterfaceForIOR13cacReadNotify
000b8864 T _ZN15netReadNotifyIOD0Ev
000b88bc T _ZN15netReadNotifyIOD1Ev
000b88f4 T _ZN15netReadNotifyIOD2Ev
000b87e4 T _ZN15netReadNotifyIOdlEPv
000b94a8 T _ZN15netSubscription10completionER10epicsGuardI10epicsMutexER10cacRecycle
000b9374 T _ZN15netSubscription10completionER10epicsGuardI10epicsMutexER10cacRecyclejmPKv
000b9020 T _ZN15netSubscription14isSubscriptionEv
000b97b8 T _ZN15netSubscription19subscribeIfRequiredER10epicsGuardI10epicsMutexER4nciu
000b940c T _ZN15netSubscription21unsubscribeIfRequiredER10epicsGuardI10epicsMutexER4nciu
000b9810 T _ZN15netSubscription23forceSubscriptionUpdateER10epicsGuardI10epicsMutexER4nciu
000b8fb4 T _ZN15netSubscription7destroyER10epicsGuardI10epicsMutexER10cacRecycle
000b9054 T _ZN15netSubscription9exceptionER10epicsGuardI10epicsMutexER10cacRecycleiPKc
000b91d0 T _ZN15netSubscription9exceptionER10epicsGuardI10epicsMutexER10cacRecycleiPKcjm
000b9848 T _ZN15netSubscriptionC1ER21privateInterfaceForIOjmjR14cacStateNotify
000b9660 T _ZN15netSubscriptionC2ER21privateInterfaceForIOjmjR14cacStateNotify
000b9598 T _ZN15netSubscriptionD0Ev
000b95f0 T _ZN15netSubscriptionD1Ev
000b9628 T _ZN15netSubscriptionD2Ev
000b9464 T _ZN15netSubscriptiondlEPv
0009a44c T _ZN15oldSubscription7currentER10epicsGuardI10epicsMutexEjmPKv
0009a570 T _ZN15oldSubscription9exceptionER10epicsGuardI10epicsMutexEiPKcjm
0009a2dc T _ZN15oldSubscriptionC1ER10epicsGuardI10epicsMutexER16oldChannelNotifyR10cacChanneljmjPFv18event_handler_argsEPvPPS_
0009a394 T _ZN15oldSubscriptionC2ER10epicsGuardI10epicsMutexER16oldChannelNotifyR10cacChanneljmjPFv18event_handler_argsEPvPPS_
0009a214 T _ZN15oldSubscriptionD0Ev
0009a26c T _ZN15oldSubscriptionD1Ev
0009a2a4 T _ZN15oldSubscriptionD2Ev
0009a1d0 T _ZN15oldSubscriptiondlEPv
000bb9e0 T _ZN15syncGroupNotifyC1Ev
000bba54 T _ZN15syncGroupNotifyC2Ev
000bb9fc T _ZN15syncGroupNotifyD0Ev
000bba34 T _ZN15syncGroupNotifyD1Ev
000bba44 T _ZN15syncGroupNotifyD2Ev
000ba7e4 T _ZN15tcpRecvWatchdog13connectNotifyER10epicsGuardI10epicsMutexE
000ba92c T _ZN15tcpRecvWatchdog17sendTimeoutNotifyER10epicsGuardI10epicsMutexES3_
000baac8 T _ZN15tcpRecvWatchdog19beaconAnomalyNotifyER10epicsGuardI10epicsMutexE
000bab34 T _ZN15tcpRecvWatchdog19beaconArrivalNotifyER10epicsGuardI10epicsMutexE
000ba664 T _ZN15tcpRecvWatchdog19probeResponseNotifyER10epicsGuardI10epicsMutexE
000baa14 T _ZN15tcpRecvWatchdog20messageArrivalNotifyER10epicsGuardI10epicsMutexE
000ba874 T _ZN15tcpRecvWatchdog25sendBacklogProgressNotifyER10epicsGuardI10epicsMutexE
000b9ff0 T _ZN15tcpRecvWatchdog6cancelEv
000babdc T _ZN15tcpRecvWatchdog6expireERK9epicsTime
000ba5ec T _ZN15tcpRecvWatchdog8shutdownEv
000ba114 T _ZN15tcpRecvWatchdogC1ER10epicsMutexR16cacContextNotifyS1_R6tcpiiudR15epicsTimerQueue
000ba3b8 T _ZN15tcpRecvWatchdogC2ER10epicsMutexR16cacContextNotifyS1_R6tcpiiudR15epicsTimerQueue
000ba1f4 T _ZN15tcpRecvWatchdogD0Ev
000ba298 T _ZN15tcpRecvWatchdogD1Ev
000ba328 T _ZN15tcpRecvWatchdogD2Ev
000b99a0 T _ZN15tcpSendWatchdog5startERK9epicsTime
000b99dc T _ZN15tcpSendWatchdog6cancelEv
000b9d60 T _ZN15tcpSendWatchdog6expireERK9epicsTime
000b9a0c T _ZN15tcpSendWatchdogC1ER10epicsMutexR16cacContextNotifyS1_R6tcpiiudR15epicsTimerQueue
000b9c98 T _ZN15tcpSendWatchdogC2ER10epicsMutexR16cacContextNotifyS1_R6tcpiiudR15epicsTimerQueue
000b9ad4 T _ZN15tcpSendWatchdogD0Ev
000b9b78 T _ZN15tcpSendWatchdogD1Ev
000b9c08 T _ZN15tcpSendWatchdogD2Ev
00000000 W _ZN15wireRecvAdapterD0Ev
00000000 W _ZN15wireRecvAdapterD1Ev
00000000 W _ZN15wireSendAdapterD0Ev
00000000 W _ZN15wireSendAdapterD1Ev
000cd268 T _ZN16SingletonUntyped12decrRefCountEPFvPvE
000cd150 T _ZN16SingletonUntyped12incrRefCountEPFPvvE
000baf94 T _ZN16bheMemoryManagerD0Ev
000bafcc T _ZN16bheMemoryManagerD1Ev
000bafdc T _ZN16bheMemoryManagerD2Ev
000a5970 T _ZN16cacChannelNotifyD0Ev
000a59a8 T _ZN16cacChannelNotifyD1Ev
000a59b8 T _ZN16cacChannelNotifyD2Ev
000a59cc T _ZN16cacContextNotify32callbackProcessingCompleteNotifyEv
000a59c8 T _ZN16cacContextNotify32callbackProcessingInitiateNotifyEv
000a59d0 T _ZN16cacContextNotifyD0Ev
000a5a08 T _ZN16cacContextNotifyD1Ev
000a5a18 T _ZN16cacContextNotifyD2Ev
00068098 T _ZN16dbSubscriptionIO10destructorER13CallbackGuardR10epicsGuardI10epicsMutexE
00067f38 T _ZN16dbSubscriptionIO11unsubscribeER13CallbackGuardR10epicsGuardI10epicsMutexE
00067d88 T _ZN16dbSubscriptionIO14isSubscriptionEv
00068668 T _ZN16dbSubscriptionIO22channelDeleteExceptionER13CallbackGuardR10epicsGuardI10epicsMutexE
0006810c T _ZN16dbSubscriptionIOC1ER10epicsGuardI10epicsMutexERS1_R9dbContextR11dbChannelIOP9dbChannelR14cacStateNotifyjmjPv
00068318 T _ZN16dbSubscriptionIOC2ER10epicsGuardI10epicsMutexERS1_R9dbContextR11dbChannelIOP9dbChannelR14cacStateNotifyjmjPv
00068040 T _ZN16dbSubscriptionIOD0Ev
00068078 T _ZN16dbSubscriptionIOD1Ev
00068088 T _ZN16dbSubscriptionIOD2Ev
00067e48 T _ZN16dbSubscriptionIOdlEPv
00067d8c T _ZN16dbSubscriptionIOdlEPvR10tsFreeListIS_Lj256E14epicsMutexNOOPE
00067e10 T _ZN16dbSubscriptionIOnwEjR10tsFreeListIS_Lj256E14epicsMutexNOOPE
000ecd58 T _ZN16epicsTimerNotify12expireStatusC1ENS_9restart_tE
000ec718 T _ZN16epicsTimerNotify12expireStatusC1ENS_9restart_tERKd
000ecf38 T _ZN16epicsTimerNotify12expireStatusC2ENS_9restart_tE
000eca38 T _ZN16epicsTimerNotify12expireStatusC2ENS_9restart_tERKd
000eb418 T _ZN16epicsTimerNotifyD0Ev
000eb450 T _ZN16epicsTimerNotifyD1Ev
000eb460 T _ZN16epicsTimerNotifyD2Ev
000b8a60 T _ZN16netWriteNotifyIO10completionER10epicsGuardI10epicsMutexER10cacRecycle
000b8b00 T _ZN16netWriteNotifyIO10completionER10epicsGuardI10epicsMutexER10cacRecyclejmPKv
000b8d30 T _ZN16netWriteNotifyIO14isSubscriptionEv
000b8d38 T _ZN16netWriteNotifyIO23forceSubscriptionUpdateER10epicsGuardI10epicsMutexER4nciu
000b89f4 T _ZN16netWriteNotifyIO7destroyER10epicsGuardI10epicsMutexER10cacRecycle
000b8b88 T _ZN16netWriteNotifyIO9exceptionER10epicsGuardI10epicsMutexER10cacRecycleiPKc
000b8c50 T _ZN16netWriteNotifyIO9exceptionER10epicsGuardI10epicsMutexER10cacRecycleiPKcjm
000b8f1c T _ZN16netWriteNotifyIOC1ER21privateInterfaceForIOR14cacWriteNotify
000b8d3c T _ZN16netWriteNotifyIOC2ER21privateInterfaceForIOR14cacWriteNotify
000b8e54 T _ZN16netWriteNotifyIOD0Ev
000b8eac T _ZN16netWriteNotifyIOD1Ev
000b8ee4 T _ZN16netWriteNotifyIOD2Ev
000b8dd4 T _ZN16netWriteNotifyIOdlEPv
000993e8 T _ZN16oldChannelNotify10destructorER13CallbackGuardR10epicsGuardI10epicsMutexE
00099044 T _ZN16oldChannelNotify13connectNotifyER10epicsGuardI10epicsMutexE
00097bc4 T _ZN16oldChannelNotify13readExceptionER10epicsGuardI10epicsMutexEiPKcjmPv
00097b74 T _ZN16oldChannelNotify14writeExceptionER10epicsGuardI10epicsMutexEiPKcjm
00098f2c T _ZN16oldChannelNotify16disconnectNotifyER10epicsGuardI10epicsMutexE
000992ec T _ZN16oldChannelNotify18accessRightsNotifyER10epicsGuardI10epicsMutexERK14caAccessRights
00097a68 T _ZN16oldChannelNotify21serviceShutdownNotifyER10epicsGuardI10epicsMutexE
00097ad0 T _ZN16oldChannelNotify4readER10epicsGuardI10epicsMutexEjmR13cacReadNotifyPj
00097b00 T _ZN16oldChannelNotify5writeER10epicsGuardI10epicsMutexEjmPKvR14cacWriteNotifyPj
00097a94 T _ZN16oldChannelNotify9exceptionER10epicsGuardI10epicsMutexEiPKc
00099508 T _ZN16oldChannelNotifyC1ER10epicsGuardI10epicsMutexER17ca_client_contextPKcPFv23connection_handler_argsEPvj
00097cdc T _ZN16oldChannelNotifyC2ER10epicsGuardI10epicsMutexER17ca_client_contextPKcPFv23connection_handler_argsEPvj
00097c14 T _ZN16oldChannelNotifyD0Ev
00097c6c T _ZN16oldChannelNotifyD1Ev
00097ca4 T _ZN16oldChannelNotifyD2Ev
00097b30 T _ZN16oldChannelNotifydlEPv
000ee190 T _ZN16timerQueueActive10rescheduleEv
000edf74 T _ZN16timerQueueActive11createTimerEv
000edf44 T _ZN16timerQueueActive15createTimerForCEPFvPvES0_
000ede0c T _ZN16timerQueueActive18getEpicsTimerQueueEv
000edfa4 T _ZN16timerQueueActive32_printLastChanceExceptionMessageEPKcS1_
000ee1c8 T _ZN16timerQueueActive3runEv
000ee090 T _ZN16timerQueueActive5startEv
000ede00 T _ZN16timerQueueActive7quantumEv
000eed80 T _ZN16timerQueueActiveC1ERN14epicsSingletonI19timerQueueActiveMgrE9referenceEbj
000ef0bc T _ZN16timerQueueActiveC2ERN14epicsSingletonI19timerQueueActiveMgrE9referenceEbj
000ee43c T _ZN16timerQueueActiveD0Ev
000ee770 T _ZN16timerQueueActiveD1Ev
000eea78 T _ZN16timerQueueActiveD2Ev
0008ef48 T _ZN17CACChannelPrivateC1Ev
0008ee80 T _ZN17CACChannelPrivateC2Ev
000952ac T _ZN17ca_client_context10lookupCASGER10epicsGuardI10epicsMutexEj
00095474 T _ZN17ca_client_context11installCASGER10epicsGuardI10epicsMutexER4CASG
0009551c T _ZN17ca_client_context13createChannelER10epicsGuardI10epicsMutexEPKcR16cacChannelNotifyj
000953f0 T _ZN17ca_client_context13uninstallCASGER10epicsGuardI10epicsMutexER4CASG
000931e8 T _ZN17ca_client_context14_sendWakeupMsgEv
00095214 T _ZN17ca_client_context14destroyGetCopyER10epicsGuardI10epicsMutexER7getCopy
00002bf0 B _ZN17ca_client_context15pDefaultServiceE
00093254 T _ZN17ca_client_context17attachToClientCtxEv
0009517c T _ZN17ca_client_context18destroyGetCallbackER10epicsGuardI10epicsMutexER11getCallback
000950e4 T _ZN17ca_client_context18destroyPutCallbackER10epicsGuardI10epicsMutexER11putCallback
0009504c T _ZN17ca_client_context19destroySubscriptionER10epicsGuardI10epicsMutexER15oldSubscription
00005738 R _ZN17ca_client_context19flushBlockThresholdE
00093fc0 T _ZN17ca_client_context20changeExceptionEventEPFv22exception_handler_argsEPv
0009313c T _ZN17ca_client_context20createNetworkContextER10epicsMutexS1_
00093828 T _ZN17ca_client_context20replaceErrLogHandlerEPFiPKcP13__va_list_tagE
00095f7c T _ZN17ca_client_context21installDefaultServiceER10cacService
000938d8 T _ZN17ca_client_context22decrementOutstandingIOER10epicsGuardI10epicsMutexEj
00094f78 T _ZN17ca_client_context22incrementOutstandingIOER10epicsGuardI10epicsMutexEj
00002bf4 B _ZN17ca_client_context27pDefaultServiceInstallMutexE
0009403c T _ZN17ca_client_context29eliminateExcessiveSendBacklogER10epicsGuardI10epicsMutexER10cacChannel
0009444c T _ZN17ca_client_context31blockForEventAndEnableCallbacksER10epicsEventRKd
00093c28 T _ZN17ca_client_context32callbackProcessingCompleteNotifyEv
00093cdc T _ZN17ca_client_context32callbackProcessingInitiateNotifyEv
00093ef4 T _ZN17ca_client_context33registerForFileDescriptorCallBackEPFvPviiES0_
00000000 W _ZN17ca_client_context40whenThereIsAnExceptionDestroySyncGroupIOI19syncGroupReadNotifyEEvR10epicsGuardI10epicsMutexERT_
00000000 W _ZN17ca_client_context40whenThereIsAnExceptionDestroySyncGroupIOI20syncGroupWriteNotifyEEvR10epicsGuardI10epicsMutexERT_
00093104 T _ZN17ca_client_context5flushER10epicsGuardI10epicsMutexE
00094968 T _ZN17ca_client_context6pendIOERKd
00093648 T _ZN17ca_client_context6signalEiPKciS1_z
00093428 T _ZN17ca_client_context7vSignalEiPKciS1_P13__va_list_tag
00094df4 T _ZN17ca_client_context9exceptionER10epicsGuardI10epicsMutexEiPKcS5_j
00094be8 T _ZN17ca_client_context9exceptionER10epicsGuardI10epicsMutexEiPKcS5_jR16oldChannelNotifyjmj
0009455c T _ZN17ca_client_context9pendEventERKd
000970bc T _ZN17ca_client_contextC1Eb
000955d4 T _ZN17ca_client_contextC2Eb
00096484 T _ZN17ca_client_contextD0Ev
00096cb0 T _ZN17ca_client_contextD1Ev
000968a4 T _ZN17ca_client_contextD2Ev
000c0808 T _ZN17searchTimerNotifyD0Ev
000c0840 T _ZN17searchTimerNotifyD1Ev
000c0850 T _ZN17searchTimerNotifyD2Ev
000efc6c T _ZN17timerQueuePassive11createTimerEv
000efc3c T _ZN17timerQueuePassive15createTimerForCEPFvPvES0_
000efb94 T _ZN17timerQueuePassive18getEpicsTimerQueueEv
000efc0c T _ZN17timerQueuePassive7processERK9epicsTime
000eff28 T _ZN17timerQueuePassiveC1ER21epicsTimerQueueNotify
000f0030 T _ZN17timerQueuePassiveC2ER21epicsTimerQueueNotify
000efd64 T _ZN17timerQueuePassiveD0Ev
000efe08 T _ZN17timerQueuePassiveD1Ev
000efe98 T _ZN17timerQueuePassiveD2Ev
00000000 W _ZN18chronIntIdResTableI4CASGED0Ev
00000000 W _ZN18chronIntIdResTableI4CASGED1Ev
00000000 W _ZN18chronIntIdResTableI4nciuED0Ev
00000000 W _ZN18chronIntIdResTableI4nciuED1Ev
00000000 W _ZN18chronIntIdResTableI8baseNMIUED0Ev
00000000 W _ZN18chronIntIdResTableI8baseNMIUED1Ev
00000000 W _ZN18chronIntIdResTableI8dbBaseIOED0Ev
00000000 W _ZN18chronIntIdResTableI8dbBaseIOED1Ev
00069060 T _ZN18dbPutNotifyBlocker10destructorER13CallbackGuardR10epicsGuardI10epicsMutexE
00068ad4 T _ZN18dbPutNotifyBlocker14expandValueBufER10epicsGuardI10epicsMutexEm
0006872c T _ZN18dbPutNotifyBlocker14isSubscriptionEv
00068ba0 T _ZN18dbPutNotifyBlocker17initiatePutNotifyER10epicsGuardI10epicsMutexER14cacWriteNotifyP9dbChanneljmPKv
00068f48 T _ZN18dbPutNotifyBlocker6cancelER13CallbackGuardR10epicsGuardI10epicsMutexE
0006927c T _ZN18dbPutNotifyBlockerC1ER10epicsMutex
00069134 T _ZN18dbPutNotifyBlockerC2ER10epicsMutex
00069354 T _ZN18dbPutNotifyBlockerD0Ev
000693d8 T _ZN18dbPutNotifyBlockerD1Ev
0006920c T _ZN18dbPutNotifyBlockerD2Ev
0006876c T _ZN18dbPutNotifyBlockerdlEPv
00068734 T _ZN18dbPutNotifyBlockerdlEPvR10tsFreeListIS_Lj64E14epicsMutexNOOPE
000687b0 T _ZN18dbPutNotifyBlockernwEjR10tsFreeListIS_Lj64E14epicsMutexNOOPE
000de4d4 T _ZN18epicsThreadRunable3runEv
000de508 T _ZN18epicsThreadRunableD0Ev
000de540 T _ZN18epicsThreadRunableD1Ev
000de550 T _ZN18epicsThreadRunableD2Ev
000be6e0 T _ZN19comBufMemoryManagerD0Ev
000be718 T _ZN19comBufMemoryManagerD1Ev
000be728 T _ZN19comBufMemoryManagerD2Ev
000de074 T _ZN19ipAddrToAsciiEngine8allocateEv
000dc190 T _ZN19ipAddrToAsciiEngineD0Ev
000dc1c8 T _ZN19ipAddrToAsciiEngineD1Ev
000dc1d8 T _ZN19ipAddrToAsciiEngineD2Ev
000c2e40 T _ZN19repeaterTimerNotifyD0Ev
000c2e78 T _ZN19repeaterTimerNotifyD1Ev
000c2e88 T _ZN19repeaterTimerNotifyD2Ev
0009d150 T _ZN19syncGroupReadNotify10completionER10epicsGuardI10epicsMutexEjmPKv
0009d794 T _ZN19syncGroupReadNotify5beginER10epicsGuardI10epicsMutexEjm
0009ce5c T _ZN19syncGroupReadNotify6cancelER13CallbackGuardR10epicsGuardI10epicsMutexE
0009ceb4 T _ZN19syncGroupReadNotify7destroyER13CallbackGuardR10epicsGuardI10epicsMutexE
0009d5fc T _ZN19syncGroupReadNotify7factoryER10tsFreeListIS_Lj128E14epicsMutexNOOPER4CASGMS4_FvR10epicsGuardI10epicsMutexERS_EP16oldChannelNotifyPv
0009d0a4 T _ZN19syncGroupReadNotify9exceptionER10epicsGuardI10epicsMutexEiPKcjm
00000000 W _ZN19syncGroupReadNotify9ioPendingER10epicsGuardI10epicsMutexE
0009d544 T _ZN19syncGroupReadNotifyC1ER4CASGMS0_FvR10epicsGuardI10epicsMutexERS_EP16oldChannelNotifyPv
0009d6dc T _ZN19syncGroupReadNotifyC2ER4CASGMS0_FvR10epicsGuardI10epicsMutexERS_EP16oldChannelNotifyPv
0009d264 T _ZN19syncGroupReadNotifyD0Ev
0009d36c T _ZN19syncGroupReadNotifyD1Ev
0009d458 T _ZN19syncGroupReadNotifyD2Ev
0009cfd8 T _ZN19syncGroupReadNotifydlEPv
0009cf68 T _ZN19syncGroupReadNotifydlEPvR10tsFreeListIS_Lj128E14epicsMutexNOOPE
0009cfa0 T _ZN19syncGroupReadNotifynwEjR10tsFreeListIS_Lj128E14epicsMutexNOOPE
000ef764 T _ZN19timerQueueActiveMgr7releaseER25epicsTimerQueueActiveForC
000ef8f8 T _ZN19timerQueueActiveMgr8allocateERN14epicsSingletonIS_E9referenceEbj
000ef718 T _ZN19timerQueueActiveMgrC1Ev
000ef6cc T _ZN19timerQueueActiveMgrC2Ev
000efb00 T _ZN19timerQueueActiveMgrD1Ev
000ef638 T _ZN19timerQueueActiveMgrD2Ev
0009db54 T _ZN20syncGroupWriteNotify10completionER10epicsGuardI10epicsMutexE
0009e0f0 T _ZN20syncGroupWriteNotify5beginER10epicsGuardI10epicsMutexEjmPKv
0009d858 T _ZN20syncGroupWriteNotify6cancelER13CallbackGuardR10epicsGuardI10epicsMutexE
0009d8b0 T _ZN20syncGroupWriteNotify7destroyER13CallbackGuardR10epicsGuardI10epicsMutexE
0009df78 T _ZN20syncGroupWriteNotify7factoryER10tsFreeListIS_Lj128E14epicsMutexNOOPER4CASGMS4_FvR10epicsGuardI10epicsMutexERS_EP16oldChannelNotify
0009da9c T _ZN20syncGroupWriteNotify9exceptionER10epicsGuardI10epicsMutexEiPKcjm
00000000 W _ZN20syncGroupWriteNotify9ioPendingER10epicsGuardI10epicsMutexE
0009ded0 T _ZN20syncGroupWriteNotifyC1ER4CASGMS0_FvR10epicsGuardI10epicsMutexERS_EP16oldChannelNotify
0009e048 T _ZN20syncGroupWriteNotifyC2ER4CASGMS0_FvR10epicsGuardI10epicsMutexERS_EP16oldChannelNotify
0009dbf0 T _ZN20syncGroupWriteNotifyD0Ev
0009dcf8 T _ZN20syncGroupWriteNotifyD1Ev
0009dde4 T _ZN20syncGroupWriteNotifyD2Ev
0009d9d4 T _ZN20syncGroupWriteNotifydlEPv
0009d964 T _ZN20syncGroupWriteNotifydlEPvR10tsFreeListIS_Lj128E14epicsMutexNOOPE
0009d99c T _ZN20syncGroupWriteNotifynwEjR10tsFreeListIS_Lj128E14epicsMutexNOOPE
000e166c T _ZN21epicsTimeLoadTimeInitC1Ev
000e1db8 T _ZN21epicsTimeLoadTimeInitC2Ev
000ef3f8 T _ZN21epicsTimerQueueActive8allocateEbj
000ee0c0 T _ZN21epicsTimerQueueActiveD0Ev
000ee118 T _ZN21epicsTimerQueueActiveD1Ev
000ee150 T _ZN21epicsTimerQueueActiveD2Ev
000eb470 T _ZN21epicsTimerQueueNotifyD0Ev
000eb4a8 T _ZN21epicsTimerQueueNotifyD1Ev
000eb4b8 T _ZN21epicsTimerQueueNotifyD2Ev
000dc240 T _ZN21ipAddrToAsciiCallBackD0Ev
000dc278 T _ZN21ipAddrToAsciiCallBackD1Ev
000dc288 T _ZN21ipAddrToAsciiCallBackD2Ev
00000000 W _ZN21privateInterfaceForIOD0Ev
00000000 W _ZN21privateInterfaceForIOD1Ev
0009e580 T _ZN22cacComBufMemoryManager7releaseEPv
0009e7ac T _ZN22cacComBufMemoryManager8allocateEj
00000000 W _ZN22cacComBufMemoryManagerD0Ev
00000000 W _ZN22cacComBufMemoryManagerD1Ev
000dea94 T _ZN22epicsThreadPrivateBase32throwUnableToCreateThreadPrivateEv
000effa4 T _ZN22epicsTimerQueuePassive6createER21epicsTimerQueueNotify
000efc9c T _ZN22epicsTimerQueuePassiveD0Ev
000efcf4 T _ZN22epicsTimerQueuePassiveD1Ev
000efd2c T _ZN22epicsTimerQueuePassiveD2Ev
000c2e34 T _ZN22repeaterSubscribeTimer13confirmNotifyEv
000c2df0 T _ZN22repeaterSubscribeTimer5startEv
000c333c T _ZN22repeaterSubscribeTimer6expireERK9epicsTime
000c3214 T _ZN22repeaterSubscribeTimer8shutdownER10epicsGuardI10epicsMutexES3_
000c30a4 T _ZN22repeaterSubscribeTimerC1ER19repeaterTimerNotifyR15epicsTimerQueueR10epicsMutexR16cacContextNotify
000c315c T _ZN22repeaterSubscribeTimerC2ER19repeaterTimerNotifyR15epicsTimerQueueR10epicsMutexR16cacContextNotify
000c2ee0 T _ZN22repeaterSubscribeTimerD0Ev
000c2f84 T _ZN22repeaterSubscribeTimerD1Ev
000c3014 T _ZN22repeaterSubscribeTimerD2Ev
000c2af0 T _ZN23disconnectGovernorTimer11installChanER10epicsGuardI10epicsMutexER4nciu
000c2440 T _ZN23disconnectGovernorTimer13uninstallChanER10epicsGuardI10epicsMutexER4nciu
000c23a4 T _ZN23disconnectGovernorTimer5startEv
000c298c T _ZN23disconnectGovernorTimer6expireERK9epicsTime
000c2bd8 T _ZN23disconnectGovernorTimer8shutdownER10epicsGuardI10epicsMutexES3_
000c27c8 T _ZN23disconnectGovernorTimerC1ER24disconnectGovernorNotifyR15epicsTimerQueueR10epicsMutex
000c2728 T _ZN23disconnectGovernorTimerC2ER24disconnectGovernorNotifyR15epicsTimerQueueR10epicsMutex
000c2564 T _ZN23disconnectGovernorTimerD0Ev
000c2608 T _ZN23disconnectGovernorTimerD1Ev
000c2698 T _ZN23disconnectGovernorTimerD2Ev
000bef08 T _ZN23msgForMultiplyDefinedPV19transactionCompleteEPKc
000bf30c T _ZN23msgForMultiplyDefinedPVC1ER19ipAddrToAsciiEngineR28callbackForMultiplyDefinedPVPKcS5_
000bf220 T _ZN23msgForMultiplyDefinedPVC2ER19ipAddrToAsciiEngineR28callbackForMultiplyDefinedPVPKcS5_
000bf05c T _ZN23msgForMultiplyDefinedPVD0Ev
000bf100 T _ZN23msgForMultiplyDefinedPVD1Ev
000bf190 T _ZN23msgForMultiplyDefinedPVD2Ev
000befa4 T _ZN23msgForMultiplyDefinedPVdlEPv
000befe8 T _ZN23msgForMultiplyDefinedPVdlEPvR10tsFreeListIS_Lj16E10epicsMutexE
000bf024 T _ZN23msgForMultiplyDefinedPVnwEjR10tsFreeListIS_Lj16E10epicsMutexE
00069890 T _ZN24dbContextReadNotifyCache14callReadNotifyER10epicsGuardI10epicsMutexEP9dbChanneljmR13cacReadNotify
00069468 T _ZN24dbContextReadNotifyCacheC1ER10epicsMutex
000694b0 T _ZN24dbContextReadNotifyCacheC2ER10epicsMutex
000c23e8 T _ZN24disconnectGovernorNotifyD0Ev
000c2420 T _ZN24disconnectGovernorNotifyD1Ev
000c2430 T _ZN24disconnectGovernorNotifyD2Ev
000e00b0 T _ZN24epicsDeadlockDetectMutex4lockEv
000e0da0 T _ZN24epicsDeadlockDetectMutex6unlockEv
000e0cc8 T _ZN24epicsDeadlockDetectMutex7tryLockEv
000e09ec T _ZN24epicsDeadlockDetectMutexC1Ej
000e0a8c T _ZN24epicsDeadlockDetectMutexC2Ej
000e0690 T _ZN24epicsDeadlockDetectMutexD1Ev
000e06bc T _ZN24epicsDeadlockDetectMutexD2Ev
000dc1e8 T _ZN24ipAddrToAsciiTransactionD0Ev
000dc220 T _ZN24ipAddrToAsciiTransactionD1Ev
000dc230 T _ZN24ipAddrToAsciiTransactionD2Ev
000ebcc8 T _ZN25epicsTimerQueueActiveForC7releaseEv
000ec1b4 T _ZN25epicsTimerQueueActiveForCC1ERN14epicsSingletonI19timerQueueActiveMgrE9referenceEbj
000ebdd4 T _ZN25epicsTimerQueueActiveForCC2ERN14epicsSingletonI19timerQueueActiveMgrE9referenceEbj
000ec330 T _ZN25epicsTimerQueueActiveForCD0Ev
000ebd84 T _ZN25epicsTimerQueueActiveForCD1Ev
000ec2c8 T _ZN25epicsTimerQueueActiveForCD2Ev
000eb1dc T _ZN26epicsTimerQueuePassiveForC10rescheduleEv
000eb23c T _ZN26epicsTimerQueuePassiveForC7destroyEv
000eb20c T _ZN26epicsTimerQueuePassiveForC7quantumEv
000eba84 T _ZN26epicsTimerQueuePassiveForCC1EPFvPvEPFdS0_ES0_
000ebc0c T _ZN26epicsTimerQueuePassiveForCC2EPFvPvEPFdS0_ES0_
000eb8ac T _ZN26epicsTimerQueuePassiveForCD0Ev
000eb95c T _ZN26epicsTimerQueuePassiveForCD1Ev
000eb9f0 T _ZN26epicsTimerQueuePassiveForCD2Ev
000dc418 T _ZN26ipAddrToAsciiEnginePrivate17createTransactionEv
000dd848 T _ZN26ipAddrToAsciiEnginePrivate3runEv
00004148 B _ZN26ipAddrToAsciiEnginePrivate7pEngineE
000dc168 T _ZN26ipAddrToAsciiEnginePrivate7releaseEv
000ddb64 T _ZN26ipAddrToAsciiEnginePrivateC1Ev
000dde74 T _ZN26ipAddrToAsciiEnginePrivateC2Ev
000dc59c T _ZN26ipAddrToAsciiEnginePrivateD0Ev
000dc7c8 T _ZN26ipAddrToAsciiEnginePrivateD1Ev
000dc9d8 T _ZN26ipAddrToAsciiEnginePrivateD2Ev
000ef5c8 T _ZN26timerQueueActiveMgrPrivateC1Ev
000ef5b0 T _ZN26timerQueueActiveMgrPrivateC2Ev
000ef5e0 T _ZN26timerQueueActiveMgrPrivateD0Ev
000ef618 T _ZN26timerQueueActiveMgrPrivateD1Ev
000ef628 T _ZN26timerQueueActiveMgrPrivateD2Ev
000bef4c T _ZN28callbackForMultiplyDefinedPVD0Ev
000bef84 T _ZN28callbackForMultiplyDefinedPVD1Ev
000bef94 T _ZN28callbackForMultiplyDefinedPVD2Ev
000dcdbc T _ZN31ipAddrToAsciiTransactionPrivate13ipAddrToAsciiERK11osiSockAddrR21ipAddrToAsciiCallBack
000dc3c4 T _ZN31ipAddrToAsciiTransactionPrivate7releaseEv
000dc298 T _ZN31ipAddrToAsciiTransactionPrivateC1ER26ipAddrToAsciiEnginePrivate
000dc30c T _ZN31ipAddrToAsciiTransactionPrivateC2ER26ipAddrToAsciiEnginePrivate
000dcf50 T _ZN31ipAddrToAsciiTransactionPrivateD0Ev
000dd258 T _ZN31ipAddrToAsciiTransactionPrivateD1Ev
000dd54c T _ZN31ipAddrToAsciiTransactionPrivateD2Ev
000dc380 T _ZN31ipAddrToAsciiTransactionPrivatedlEPv
00069664 T _ZN33dbContextReadNotifyCacheAllocator22reclaimAllCacheEntriesEv
00069600 T _ZN33dbContextReadNotifyCacheAllocator4freeEPc
00069778 T _ZN33dbContextReadNotifyCacheAllocator5allocEm
00069458 T _ZN33dbContextReadNotifyCacheAllocatorC1Ev
00069448 T _ZN33dbContextReadNotifyCacheAllocatorC2Ev
00069720 T _ZN33dbContextReadNotifyCacheAllocatorD1Ev
0006974c T _ZN33dbContextReadNotifyCacheAllocatorD2Ev
000bb96c T _ZN3bhe11registerIIUER10epicsGuardI10epicsMutexER6tcpiiu
000bb538 T _ZN3bhe12updatePeriodER10epicsGuardI10epicsMutexERK9epicsTimeS6_jj
000bb888 T _ZN3bhe13unregisterIIUER10epicsGuardI10epicsMutexER6tcpiiu
000baf90 T _ZN3bhe16logBeaconDiscardEjRK9epicsTime
000bb4a4 T _ZN3bhe19beaconAnomalyNotifyER10epicsGuardI10epicsMutexE
000bb11c T _ZN3bheC1ER10epicsMutexRK9epicsTimejRK10inetAddrID
000bb2e8 T _ZN3bheC2ER10epicsMutexRK9epicsTimejRK10inetAddrID
000baf8c T _ZN3bheD1Ev
000baf88 T _ZN3bheD2Ev
000bb04c T _ZN3bhedlEPv
000a20a4 T _ZN3cac10destroyIIUER6tcpiiu
000a1198 T _ZN3cac10writeExcepER15callbackManagerR6tcpiiuRK15caHdrLargeArrayPKcj
0009f2d8 T _ZN3cac12beaconNotifyERK10inetAddrIDRK9epicsTimejj
0009ec70 T _ZN3cac12defaultExcepER15callbackManagerR6tcpiiuRK15caHdrLargeArrayPKcj
0009fcd4 T _ZN3cac13createChannelER10epicsGuardI10epicsMutexEPKcR16cacChannelNotifyj
000a0c84 T _ZN3cac13eventAddExcepER15callbackManagerR6tcpiiuRK15caHdrLargeArrayPKcj
0009e8e8 T _ZN3cac13versionActionER15callbackManagerR6tcpiiuRK9epicsTimeRK15caHdrLargeArrayPv
000a24e8 T _ZN3cac14destroyChannelER10epicsGuardI10epicsMutexER4nciu
0009e8b0 T _ZN3cac14echoRespActionER15callbackManagerR6tcpiiuRK9epicsTimeRK15caHdrLargeArrayPv
0009eda8 T _ZN3cac14readRespActionER15callbackManagerR6tcpiiuRK9epicsTimeRK15caHdrLargeArrayPv
0009fb58 T _ZN3cac15disconnectAllIOER10epicsGuardI10epicsMutexES3_R4nciuR8tsDLListI8baseNMIUE
000a08e0 T _ZN3cac15eventRespActionER15callbackManagerR6tcpiiuRK9epicsTimeRK15caHdrLargeArrayPv
0009e508 T _ZN3cac15executeResponseER15callbackManagerR6tcpiiuRK9epicsTimeR15caHdrLargeArrayPc
0009f558 T _ZN3cac15initiateConnectER10epicsGuardI10epicsMutexER4nciuRP6netiiu
0009e71c T _ZN3cac15readNotifyExcepER15callbackManagerR6tcpiiuRK15caHdrLargeArrayPKcj
0000576c R _ZN3cac15tcpJumpTableCACE
0009f1f4 T _ZN3cac16badTCPRespActionER15callbackManagerR6tcpiiuRK9epicsTimeRK15caHdrLargeArrayPv
0009e7dc T _ZN3cac16searchRespActionER15callbackManagerR6tcpiiuRK9epicsTimeRK15caHdrLargeArrayPv
0009e6d4 T _ZN3cac16writeNotifyExcepER15callbackManagerR6tcpiiuRK15caHdrLargeArrayPKcj
0009f6b8 T _ZN3cac17disconnectChannelER10epicsGuardI10epicsMutexES3_R4nciu
000a0b18 T _ZN3cac17ioExceptionNotifyEjiPKcjm
000a0378 T _ZN3cac17readNotifyRequestER10epicsGuardI10epicsMutexER4nciuR21privateInterfaceForIOjmR13cacReadNotify
000a01bc T _ZN3cac18registerSearchDestER10epicsGuardI10epicsMutexER10SearchDest
000a0714 T _ZN3cac18writeNotifyRequestER10epicsGuardI10epicsMutexER4nciuR21privateInterfaceForIOjmPKvR14cacWriteNotify
0009ea5c T _ZN3cac19exceptionRespActionER15callbackManagerR6tcpiiuRK9epicsTimeRK15caHdrLargeArrayPv
0009f9b4 T _ZN3cac19recycleReadNotifyIOER10epicsGuardI10epicsMutexER15netReadNotifyIO
0009f8bc T _ZN3cac19recycleSubscriptionER10epicsGuardI10epicsMutexER15netSubscription
000a0534 T _ZN3cac19subscriptionRequestER10epicsGuardI10epicsMutexER4nciuR21privateInterfaceForIOjmjR14cacStateNotifyb
0009eeb0 T _ZN3cac20readNotifyRespActionER15callbackManagerR6tcpiiuRK9epicsTimeRK15caHdrLargeArrayPv
0009f938 T _ZN3cac20recycleWriteNotifyIOER10epicsGuardI10epicsMutexER16netWriteNotifyIO
0000584c R _ZN3cac20tcpExcepJumpTableCACE
0009f0a4 T _ZN3cac21writeNotifyRespActionER15callbackManagerR6tcpiiuRK9epicsTimeRK15caHdrLargeArrayPv
000a102c T _ZN3cac22accessRightsRespActionER15callbackManagerR6tcpiiuRK9epicsTimeRK15caHdrLargeArrayPv
0009e500 T _ZN3cac22clearChannelRespActionER15callbackManagerR6tcpiiuRK9epicsTimeRK15caHdrLargeArrayPv
000a0e14 T _ZN3cac23createChannelRespActionER15callbackManagerR6tcpiiuRK9epicsTimeRK15caHdrLargeArrayPv
000a1474 T _ZN3cac23findOrCreateVirtCircuitER10epicsGuardI10epicsMutexERK11osiSockAddrjRP6tcpiiujP13SearchDestTCP
000a1e54 T _ZN3cac23pvMultiplyDefinedNotifyER23msgForMultiplyDefinedPVPKcS3_S3_
000a0ccc T _ZN3cac23verifyAndDisconnectChanER15callbackManagerR6tcpiiuRK9epicsTimeRK15caHdrLargeArrayPv
0009ea14 T _ZN3cac24lowestPriorityLevelAboveEj
0009e9cc T _ZN3cac25highestPriorityLevelBelowEj
000a192c T _ZN3cac25transferChanToVirtCircuitEjjtmjRK11osiSockAddrRK9epicsTime
0009e5b0 T _ZN3cac29ioExceptionNotifyAndUninstallEjiPKcjm
000a02d0 T _ZN3cac5flushER10epicsGuardI10epicsMutexE
0009fa28 T _ZN3cac9destroyIOER13CallbackGuardR10epicsGuardI10epicsMutexERKjR4nciu
0009f7d8 T _ZN3cac9exceptionER10epicsGuardI10epicsMutexES3_iPKcS5_j
0009e764 T _ZN3cac9readExcepER15callbackManagerR6tcpiiuRK15caHdrLargeArrayPKcj
000a34f0 T _ZN3cacC1ER10epicsMutexS1_R16cacContextNotify
000a29c4 T _ZN3cacC2ER10epicsMutexS1_R16cacContextNotify
000a402c T _ZN3cacD0Ev
000a48b0 T _ZN3cacD1Ev
000a5110 T _ZN3cacD2Ev
0009cd0c T _ZN4CASG10destructorER13CallbackGuardR10epicsGuardI10epicsMutexE
0009ca10 T _ZN4CASG10ioCompleteER13CallbackGuardR10epicsGuardI10epicsMutexE
0009b634 T _ZN4CASG13printFormatedEPKcz
0009be64 T _ZN4CASG16completionNotifyER10epicsGuardI10epicsMutexER15syncGroupNotify
0009c684 T _ZN4CASG16destroyPendingIOER13CallbackGuardR10epicsGuardI10epicsMutexE
0009c8b0 T _ZN4CASG18destroyCompletedIOER13CallbackGuardR10epicsGuardI10epicsMutexE
0009bdc0 T _ZN4CASG19recycleReadNotifyIOER10epicsGuardI10epicsMutexER19syncGroupReadNotify
0009cc68 T _ZN4CASG20recycleWriteNotifyIOER10epicsGuardI10epicsMutexER20syncGroupWriteNotify
0009bfd0 T _ZN4CASG3getER10epicsGuardI10epicsMutexEP16oldChannelNotifyjmPv
0009c1e8 T _ZN4CASG3putER10epicsGuardI10epicsMutexEP16oldChannelNotifyjmPKv
0009ba18 T _ZN4CASG5blockEP10epicsGuardI10epicsMutexERS2_d
0009cac4 T _ZN4CASG5resetER13CallbackGuardR10epicsGuardI10epicsMutexE
0009cb88 T _ZN4CASG9exceptionER10epicsGuardI10epicsMutexEiPKcS5_j
0009b524 T _ZN4CASG9exceptionER10epicsGuardI10epicsMutexEiPKcS5_jR16oldChannelNotifyjmj
0009b768 T _ZN4CASGC1ER10epicsGuardI10epicsMutexER17ca_client_context
0009b8c0 T _ZN4CASGC2ER10epicsGuardI10epicsMutexER17ca_client_context
0009b6a0 T _ZN4CASGD1Ev
0009b704 T _ZN4CASGD2Ev
0009b4e0 T _ZN4CASGdlEPv
000a728c T _ZN4nciu11resubscribeER10epicsGuardI10epicsMutexE
000a5da8 T _ZN4nciu12stringVerifyEPKcj
000a5e38 T _ZN4nciu15disconnectAllIOER10epicsGuardI10epicsMutexES3_
000a6064 T _ZN4nciu15initiateConnectER10epicsGuardI10epicsMutexE
000a5d0c T _ZN4nciu18ioCompletionNotifyER10epicsGuardI10epicsMutexER8baseNMIU
000a7060 T _ZN4nciu21serviceShutdownNotifyER10epicsGuardI10epicsMutexES3_
000a6f18 T _ZN4nciu23accessRightsStateChangeERK14caAccessRightsR10epicsGuardI10epicsMutexES6_
000a6fc0 T _ZN4nciu23setServerAddressUnknownER6netiiuR10epicsGuardI10epicsMutexE
000a70c4 T _ZN4nciu25unresponsiveCircuitNotifyER10epicsGuardI10epicsMutexES3_
000a5b8c T _ZN4nciu26requestMessageBytesPendingER10epicsGuardI10epicsMutexE
000a6dec T _ZN4nciu30sendSubscriptionUpdateRequestsER10epicsGuardI10epicsMutexE
000a76c0 T _ZN4nciu4readER10epicsGuardI10epicsMutexEjmR13cacReadNotifyPj
000a5bbc T _ZN4nciu5flushER10epicsGuardI10epicsMutexE
000a7530 T _ZN4nciu5writeER10epicsGuardI10epicsMutexEjmPKv
000a65dc T _ZN4nciu5writeER10epicsGuardI10epicsMutexEjmPKvR14cacWriteNotifyPj
000a7bd0 T _ZN4nciu7connectEjjjR10epicsGuardI10epicsMutexES3_
000a609c T _ZN4nciu7destroyER13CallbackGuardR10epicsGuardI10epicsMutexE
000a5f78 T _ZN4nciu8ioCancelER13CallbackGuardR10epicsGuardI10epicsMutexERKj
000a6288 T _ZN4nciu9searchMsgER10epicsGuardI10epicsMutexE
000a6504 T _ZN4nciu9subscribeER10epicsGuardI10epicsMutexEjmjR14cacStateNotifyPj
000a6c08 T _ZN4nciuC1ER3cacR6netiiuR16cacChannelNotifyPKcj
000a67dc T _ZN4nciuC2ER3cacR6netiiuR16cacChannelNotifyPKcj
000a6a78 T _ZN4nciuD0Ev
000a6b10 T _ZN4nciuD1Ev
000a6b8c T _ZN4nciuD2Ev
000a5e70 T _ZN4nciudlEPv
00000000 W _ZN5intIdIjLj8ELj32EEC2ERKj
000ed1e0 T _ZN5timer12privateStartER16epicsTimerNotifyRK9epicsTime
000ed5a0 T _ZN5timer5startER16epicsTimerNotifyRK9epicsTime
000ed138 T _ZN5timer5startER16epicsTimerNotifyd
000ed99c T _ZN5timer6cancelEv
000ed660 T _ZN5timer7destroyEv
000ed470 T _ZN5timerC1ER10timerQueue
000ed508 T _ZN5timerC2ER10timerQueue
000edc40 T _ZN5timerD0Ev
000edce0 T _ZN5timerD1Ev
000edd6c T _ZN5timerD2Ev
000ed0f4 T _ZN5timerdlEPv
000be610 T _ZN6comBuf11flushToWireER15wireSendAdapterRK9epicsTime
000be77c T _ZN6comBuf30throwInsufficentBytesExceptionEv
00000000 W _ZN6comBuf3popIhEENS_9popStatusERT_
00000000 W _ZN6comBuf3popIjEENS_9popStatusERT_
00000000 W _ZN6comBuf3popItEENS_9popStatusERT_
00000000 W _ZN6comBuf4pushIdEEjPKT_j
00000000 W _ZN6comBuf4pushIfEEjPKT_j
00000000 W _ZN6comBuf4pushIiEEjPKT_j
00000000 W _ZN6comBuf4pushIsEEjPKT_j
000be738 T _ZN6comBufdlEPv
000c35c4 T _ZN6netiiu12flushRequestER10epicsGuardI10epicsMutexE
000c36a8 T _ZN6netiiu12writeRequestER10epicsGuardI10epicsMutexER4nciujmPKv
000c35f4 T _ZN6netiiu13uninstallChanER10epicsGuardI10epicsMutexER4nciu
000c3630 T _ZN6netiiu17readNotifyRequestER10epicsGuardI10epicsMutexER4nciuR15netReadNotifyIOjm
000c366c T _ZN6netiiu18writeNotifyRequestER10epicsGuardI10epicsMutexER4nciuR16netWriteNotifyIOjmPKv
000c359c T _ZN6netiiu19clearChannelRequestER10epicsGuardI10epicsMutexEjj
000c35a0 T _ZN6netiiu19subscriptionRequestER10epicsGuardI10epicsMutexER4nciuR15netSubscription
000c35a4 T _ZN6netiiu25subscriptionCancelRequestER10epicsGuardI10epicsMutexER4nciuR15netSubscription
000c35a8 T _ZN6netiiu25subscriptionUpdateRequestER10epicsGuardI10epicsMutexER4nciuR15netSubscription
000c35c8 T _ZN6netiiu26requestMessageBytesPendingER10epicsGuardI10epicsMutexE
000c35d4 T _ZN6netiiu32requestRecvProcessPostponedFlushER10epicsGuardI10epicsMutexE
000c3804 T _ZN6netiiu42uninstallChanDueToSuccessfulSearchResponseER10epicsGuardI10epicsMutexER4nciuRK9epicsTime
000c35d0 T _ZN6netiiu5flushER10epicsGuardI10epicsMutexE
000c35ec T _ZN6netiiu9searchMsgER10epicsGuardI10epicsMutexEjPKcj
000c36e4 T _ZN6netiiuD0Ev
000c371c T _ZN6netiiuD1Ev
000c372c T _ZN6netiiuD2Ev
000b0c28 T _ZN6tcpiiu11echoRequestER10epicsGuardI10epicsMutexE
000ad838 T _ZN6tcpiiu12channelCountER10epicsGuardI10epicsMutexE
000ada5c T _ZN6tcpiiu12flushRequestER10epicsGuardI10epicsMutexE
000b0acc T _ZN6tcpiiu12writeRequestER10epicsGuardI10epicsMutexER4nciujmPKv
000af054 T _ZN6tcpiiu13connectNotifyER10epicsGuardI10epicsMutexER4nciu
000b1774 T _ZN6tcpiiu13printFormatedER10epicsGuardI10epicsMutexEPKcz
000b2c90 T _ZN6tcpiiu13uninstallChanER10epicsGuardI10epicsMutexER4nciu
000af2ac T _ZN6tcpiiu14installChannelER10epicsGuardI10epicsMutexER4nciujtm
000b0d74 T _ZN6tcpiiu14versionMessageER10epicsGuardI10epicsMutexERKj
000b1880 T _ZN6tcpiiu15processIncomingERK9epicsTimeR15callbackManager
000af9d4 T _ZN6tcpiiu15sendThreadFlushER10epicsGuardI10epicsMutexE
000b2104 T _ZN6tcpiiu16disconnectNotifyER10epicsGuardI10epicsMutexE
000ae09c T _ZN6tcpiiu16searchRespNotifyERK9epicsTimeRK15caHdrLargeArray
000b0750 T _ZN6tcpiiu17readNotifyRequestER10epicsGuardI10epicsMutexER4nciuR15netReadNotifyIOjm
000b1e08 T _ZN6tcpiiu17sendTimeoutNotifyER15callbackManagerR10epicsGuardI10epicsMutexE
000b2ebc T _ZN6tcpiiu17unlinkAllChannelsER10epicsGuardI10epicsMutexES3_
000ad7f4 T _ZN6tcpiiu17versionRespNotifyERK15caHdrLargeArray
000b5850 T _ZN6tcpiiu18hostNameSetRequestER10epicsGuardI10epicsMutexE
000b53f8 T _ZN6tcpiiu18userNameSetRequestER10epicsGuardI10epicsMutexE
000b0920 T _ZN6tcpiiu18writeNotifyRequestER10epicsGuardI10epicsMutexER4nciuR16netWriteNotifyIOjmPKv
000b0618 T _ZN6tcpiiu19clearChannelRequestER10epicsGuardI10epicsMutexEjj
000affe4 T _ZN6tcpiiu19subscriptionRequestER10epicsGuardI10epicsMutexER4nciuR15netSubscription
000b46b8 T _ZN6tcpiiu20createChannelRequestER4nciuR10epicsGuardI10epicsMutexE
000b1d30 T _ZN6tcpiiu20receiveTimeoutNotifyER15callbackManagerR10epicsGuardI10epicsMutexE
000b3668 T _ZN6tcpiiu21disconnectAllChannelsER10epicsGuardI10epicsMutexES3_R6udpiiu
000b11f0 T _ZN6tcpiiu21initiateAbortShutdownER10epicsGuardI10epicsMutexE
000b2b64 T _ZN6tcpiiu21initiateCleanShutdownER10epicsGuardI10epicsMutexE
000b1160 T _ZN6tcpiiu21setEchoRequestPendingER10epicsGuardI10epicsMutexE
000b1efc T _ZN6tcpiiu23responsiveCircuitNotifyER10epicsGuardI10epicsMutexES3_
000b0f00 T _ZN6tcpiiu24enableFlowControlRequestER10epicsGuardI10epicsMutexE
000b1030 T _ZN6tcpiiu25disableFlowControlRequestER10epicsGuardI10epicsMutexE
000afc5c T _ZN6tcpiiu25subscriptionCancelRequestER10epicsGuardI10epicsMutexER4nciuR15netSubscription
000afdf4 T _ZN6tcpiiu25subscriptionUpdateRequestER10epicsGuardI10epicsMutexER4nciuR15netSubscription
000b142c T _ZN6tcpiiu25unresponsiveCircuitNotifyER10epicsGuardI10epicsMutexES3_
000af96c T _ZN6tcpiiu26requestMessageBytesPendingER10epicsGuardI10epicsMutexE
000ad740 T _ZN6tcpiiu27flushIfRecvProcessRequestedER10epicsGuardI10epicsMutexE
000af684 T _ZN6tcpiiu30decrementBlockingForFlushCountER10epicsGuardI10epicsMutexE
000af510 T _ZN6tcpiiu32requestRecvProcessPostponedFlushER10epicsGuardI10epicsMutexE
000ad8cc T _ZN6tcpiiu42uninstallChanDueToSuccessfulSearchResponseER10epicsGuardI10epicsMutexER4nciuRK9epicsTime
000af74c T _ZN6tcpiiu5flushER10epicsGuardI10epicsMutexE
000b4640 T _ZN6tcpiiu5startER10epicsGuardI10epicsMutexE
000b253c T _ZN6tcpiiu9recvBytesEPvjR12statusWireIO
000ad8a0 T _ZN6tcpiiu9searchMsgER10epicsGuardI10epicsMutexEjPKcj
000b2898 T _ZN6tcpiiu9sendBytesEPKvjRK9epicsTime
000b5cb4 T _ZN6tcpiiuC1ER3cacR10epicsMutexS3_R16cacContextNotifydR15epicsTimerQueueRK11osiSockAddrR19comBufMemoryManagerjR19ipAddrToAsciiEngineRKjP13SearchDestTCP
000b6c24 T _ZN6tcpiiuC2ER3cacR10epicsMutexS3_R16cacContextNotifydR15epicsTimerQueueRK11osiSockAddrR19comBufMemoryManagerjR19ipAddrToAsciiEngineRKjP13SearchDestTCP
000ae5c8 T _ZN6tcpiiuD0Ev
000ae964 T _ZN6tcpiiuD1Ev
000aecdc T _ZN6tcpiiuD2Ev
000ad8f8 T _ZN6tcpiiudlEPv
000aa6c0 T _ZN6udpiiu10updateRTTEER10epicsGuardI10epicsMutexEd
000a9188 T _ZN6udpiiu12beaconActionERK6ca_hdrRK11osiSockAddrRK9epicsTime
000a9aa0 T _ZN6udpiiu12boostChannelER10epicsGuardI10epicsMutexER4nciu
000a87a8 T _ZN6udpiiu12flushRequestER10epicsGuardI10epicsMutexE
000a88dc T _ZN6udpiiu12writeRequestER10epicsGuardI10epicsMutexER4nciujmPKv
000aa8f8 T _ZN6udpiiu13SearchDestUDP13searchRequestER10epicsGuardI10epicsMutexEPKcj
000a8654 T _ZN6udpiiu13SearchDestUDPC1ERK11osiSockAddrRS_
000a8614 T _ZN6udpiiu13SearchDestUDPC2ERK11osiSockAddrRS_
00000000 W _ZN6udpiiu13SearchDestUDPD0Ev
00000000 W _ZN6udpiiu13SearchDestUDPD1Ev
000aadd4 T _ZN6udpiiu13datagramFlushER10epicsGuardI10epicsMutexERK9epicsTime
000a9c00 T _ZN6udpiiu13uninstallChanER10epicsGuardI10epicsMutexER4nciu
000aa118 T _ZN6udpiiu13versionActionERK6ca_hdrRK11osiSockAddrRK9epicsTime
000aace0 T _ZN6udpiiu14pushVersionMsgEv
000a9a2c T _ZN6udpiiu15govExpireNotifyER10epicsGuardI10epicsMutexER4nciu
000aab00 T _ZN6udpiiu15pushDatagramMsgER10epicsGuardI10epicsMutexERK6ca_hdrPKvt
00005960 R _ZN6udpiiu15udpJumpTableCACE
000a8f5c T _ZN6udpiiu16badUDPRespActionERK6ca_hdrRK11osiSockAddrRK9epicsTime
000a8c08 T _ZN6udpiiu16searchRespActionERK6ca_hdrRK11osiSockAddrRK9epicsTime
000a9b90 T _ZN6udpiiu17installNewChannelER10epicsGuardI10epicsMutexER4nciuRP6netiiu
000a860c T _ZN6udpiiu17notHereRespActionERK6ca_hdrRK11osiSockAddrRK9epicsTime
000a8884 T _ZN6udpiiu17readNotifyRequestER10epicsGuardI10epicsMutexER4nciuR15netReadNotifyIOjm
000a9150 T _ZN6udpiiu17repeaterAckActionERK6ca_hdrRK11osiSockAddrRK9epicsTime
000a8ac4 T _ZN6udpiiu18SearchRespCallback6notifyERK6ca_hdrPKvRK11osiSockAddrRK9epicsTime
000a9e7c T _ZN6udpiiu18SearchRespCallbackC1ERS_
000a8694 T _ZN6udpiiu18SearchRespCallbackC2ERS_
00000000 W _ZN6udpiiu18SearchRespCallbackD0Ev
00000000 W _ZN6udpiiu18SearchRespCallbackD1Ev
000a9b14 T _ZN6udpiiu18noSearchRespNotifyER10epicsGuardI10epicsMutexER4nciuj
000a88b0 T _ZN6udpiiu18writeNotifyRequestER10epicsGuardI10epicsMutexER4nciuR16netWriteNotifyIOjmPKv
000a9db0 T _ZN6udpiiu19beaconAnomalyNotifyER10epicsGuardI10epicsMutexE
000a8858 T _ZN6udpiiu19clearChannelRequestER10epicsGuardI10epicsMutexEjj
000a9014 T _ZN6udpiiu19exceptionRespActionERK6ca_hdrRK11osiSockAddrRK9epicsTime
000a882c T _ZN6udpiiu19subscriptionRequestER10epicsGuardI10epicsMutexER4nciuR15netSubscription
000aa5f0 T _ZN6udpiiu21M_repeaterTimerNotify13printFormatedER10epicsGuardI10epicsMutexEPKcz
000aa1a0 T _ZN6udpiiu21M_repeaterTimerNotify27repeaterRegistrationMessageEj
000a96a4 T _ZN6udpiiu21M_repeaterTimerNotifyD0Ev
000a96fc T _ZN6udpiiu21M_repeaterTimerNotifyD1Ev
000a9734 T _ZN6udpiiu21M_repeaterTimerNotifyD2Ev
000a87d4 T _ZN6udpiiu25subscriptionCancelRequestER10epicsGuardI10epicsMutexER4nciuR15netSubscription
000a8800 T _ZN6udpiiu25subscriptionUpdateRequestER10epicsGuardI10epicsMutexER4nciuR15netSubscription
000a89b8 T _ZN6udpiiu26installDisconnectedChannelER10epicsGuardI10epicsMutexER4nciu
000a877c T _ZN6udpiiu26requestMessageBytesPendingER10epicsGuardI10epicsMutexE
000a8724 T _ZN6udpiiu32requestRecvProcessPostponedFlushER10epicsGuardI10epicsMutexE
000a9ccc T _ZN6udpiiu42uninstallChanDueToSuccessfulSearchResponseER10epicsGuardI10epicsMutexER4nciuRK9epicsTime
000a8750 T _ZN6udpiiu5flushER10epicsGuardI10epicsMutexE
000a8d48 T _ZN6udpiiu7postMsgERK11osiSockAddrPcmRK9epicsTime
000aa260 T _ZN6udpiiu8shutdownER10epicsGuardI10epicsMutexES3_
000aac88 T _ZN6udpiiu9searchMsgER10epicsGuardI10epicsMutexEjPKcj
000a8a34 T _ZN6udpiiu9wakeupMsgEv
000ab1f0 T _ZN6udpiiuC1ER10epicsGuardI10epicsMutexER21epicsTimerQueueActiveRS1_S6_R16cacContextNotifyR3cacjR8tsDLListI10SearchDestE
000abf34 T _ZN6udpiiuC2ER10epicsGuardI10epicsMutexER21epicsTimerQueueActiveRS1_S6_R16cacContextNotifyR3cacjR8tsDLListI10SearchDestE
000acc88 T _ZN6udpiiuD0Ev
000ad030 T _ZN6udpiiuD1Ev
000ad3b4 T _ZN6udpiiuD2Ev
0009acf0 T _ZN7getCopy10completionER10epicsGuardI10epicsMutexEjmPKv
0009b010 T _ZN7getCopy6cancelEv
0009ac1c T _ZN7getCopy9exceptionER10epicsGuardI10epicsMutexEiPKcjm
0009af70 T _ZN7getCopyC1ER10epicsGuardI10epicsMutexER17ca_client_contextR16oldChannelNotifyjmPv
0009aed0 T _ZN7getCopyC2ER10epicsGuardI10epicsMutexER17ca_client_contextR16oldChannelNotifyjmPv
0009ae08 T _ZN7getCopyD0Ev
0009ae60 T _ZN7getCopyD1Ev
0009ae98 T _ZN7getCopyD2Ev
0009ab14 T _ZN7getCopydlEPv
000b7fd4 T _ZN7noopiiu12flushRequestER10epicsGuardI10epicsMutexE
000b8108 T _ZN7noopiiu12writeRequestER10epicsGuardI10epicsMutexER4nciujmPKv
000b7e8c T _ZN7noopiiu13uninstallChanER10epicsGuardI10epicsMutexER4nciu
000b80b0 T _ZN7noopiiu17readNotifyRequestER10epicsGuardI10epicsMutexER4nciuR15netReadNotifyIOjm
000b80dc T _ZN7noopiiu18writeNotifyRequestER10epicsGuardI10epicsMutexER4nciuR16netWriteNotifyIOjmPKv
000b8084 T _ZN7noopiiu19clearChannelRequestER10epicsGuardI10epicsMutexEjj
000b8058 T _ZN7noopiiu19subscriptionRequestER10epicsGuardI10epicsMutexER4nciuR15netSubscription
000b8000 T _ZN7noopiiu25subscriptionCancelRequestER10epicsGuardI10epicsMutexER4nciuR15netSubscription
000b802c T _ZN7noopiiu25subscriptionUpdateRequestER10epicsGuardI10epicsMutexER4nciuR15netSubscription
000b7fa8 T _ZN7noopiiu26requestMessageBytesPendingER10epicsGuardI10epicsMutexE
000b7f50 T _ZN7noopiiu32requestRecvProcessPostponedFlushER10epicsGuardI10epicsMutexE
000b7ebc T _ZN7noopiiu42uninstallChanDueToSuccessfulSearchResponseER10epicsGuardI10epicsMutexER4nciuRK9epicsTime
000b7f7c T _ZN7noopiiu5flushER10epicsGuardI10epicsMutexE
000b7e90 T _ZN7noopiiu9searchMsgER10epicsGuardI10epicsMutexEjPKcj
000b81e4 T _ZN7noopiiuD0Ev
000b823c T _ZN7noopiiuD1Ev
000b836c T _ZN7noopiiuD2Ev
000a5b30 T _ZN8baseNMIU23forceSubscriptionUpdateER10epicsGuardI10epicsMutexER4nciu
000a5b34 T _ZN8baseNMIUD0Ev
000a5b6c T _ZN8baseNMIUD1Ev
000a5b7c T _ZN8baseNMIUD2Ev
00065218 T _ZN8dbBaseIOC1Ev
000647c8 T _ZN8dbBaseIOC2Ev
00000000 W _ZN8dbBaseIOD0Ev
00000000 W _ZN8dbBaseIOD1Ev
00000000 W _ZN8resTableI3bhe10inetAddrIDE11splitBucketEv
00000000 W _ZN8resTableI3bhe10inetAddrIDE19setTableSizePrivateEj
00000000 W _ZN8resTableI3bhe10inetAddrIDE3addERS0_
00000000 W _ZN8resTableI3bhe10inetAddrIDE9removeAllER8tsSLListIS0_E
00000000 W _ZN8resTableI3bhe10inetAddrIDED0Ev
00000000 W _ZN8resTableI3bhe10inetAddrIDED1Ev
00000000 W _ZN8resTableI4CASG10chronIntIdE11splitBucketEv
00000000 W _ZN8resTableI4CASG10chronIntIdE19setTableSizePrivateEj
00000000 W _ZN8resTableI4CASG10chronIntIdE3addERS0_
00000000 W _ZN8resTableI4CASG10chronIntIdE6removeERKS1_
00000000 W _ZN8resTableI4CASG10chronIntIdED0Ev
00000000 W _ZN8resTableI4CASG10chronIntIdED1Ev
00000000 W _ZN8resTableI4CASG10chronIntIdED2Ev
00000000 W _ZN8resTableI4nciu10chronIntIdE11splitBucketEv
00000000 W _ZN8resTableI4nciu10chronIntIdE19setTableSizePrivateEj
00000000 W _ZN8resTableI4nciu10chronIntIdE3addERS0_
00000000 W _ZN8resTableI4nciu10chronIntIdE6removeERKS1_
00000000 W _ZN8resTableI4nciu10chronIntIdED0Ev
00000000 W _ZN8resTableI4nciu10chronIntIdED1Ev
00000000 W _ZN8resTableI4nciu10chronIntIdED2Ev
00000000 W _ZN8resTableI6tcpiiu10caServerIDE11splitBucketEv
00000000 W _ZN8resTableI6tcpiiu10caServerIDE19setTableSizePrivateEj
00000000 W _ZN8resTableI6tcpiiu10caServerIDE3addERS0_
00000000 W _ZN8resTableI6tcpiiu10caServerIDE6removeERKS1_
00000000 W _ZN8resTableI6tcpiiu10caServerIDED0Ev
00000000 W _ZN8resTableI6tcpiiu10caServerIDED1Ev
00000000 W _ZN8resTableI8baseNMIU10chronIntIdE11splitBucketEv
00000000 W _ZN8resTableI8baseNMIU10chronIntIdE19setTableSizePrivateEj
00000000 W _ZN8resTableI8baseNMIU10chronIntIdE3addERS0_
00000000 W _ZN8resTableI8baseNMIU10chronIntIdE6removeERKS1_
00000000 W _ZN8resTableI8baseNMIU10chronIntIdED0Ev
00000000 W _ZN8resTableI8baseNMIU10chronIntIdED1Ev
00000000 W _ZN8resTableI8baseNMIU10chronIntIdED2Ev
00000000 W _ZN8resTableI8dbBaseIO10chronIntIdE11splitBucketEv
00000000 W _ZN8resTableI8dbBaseIO10chronIntIdE19setTableSizePrivateEj
00000000 W _ZN8resTableI8dbBaseIO10chronIntIdE3addERS0_
00000000 W _ZN8resTableI8dbBaseIO10chronIntIdE6removeERKS1_
00000000 W _ZN8resTableI8dbBaseIO10chronIntIdED0Ev
00000000 W _ZN8resTableI8dbBaseIO10chronIntIdED1Ev
00000000 W _ZN8resTableI8dbBaseIO10chronIntIdED2Ev
00065f28 T _ZN9dbContext12destroyAllIOER13CallbackGuardR10epicsGuardI10epicsMutexER11dbChannelIO
00065738 T _ZN9dbContext13createChannelER10epicsGuardI10epicsMutexEPKcR16cacChannelNotifyj
0006488c T _ZN9dbContext14destroyChannelER13CallbackGuardR10epicsGuardI10epicsMutexER11dbChannelIO
00064f70 T _ZN9dbContext15callStateNotifyEP9dbChanneljmPK12db_field_logR14cacStateNotify
00066230 T _ZN9dbContext17initiatePutNotifyER10epicsGuardI10epicsMutexER11dbChannelIOP9dbChanneljmPKvR14cacWriteNotifyPj
000659f4 T _ZN9dbContext5flushER10epicsGuardI10epicsMutexE
00065cdc T _ZN9dbContext8ioCancelER13CallbackGuardR10epicsGuardI10epicsMutexER11dbChannelIORKj
000663ec T _ZN9dbContext9subscribeER10epicsGuardI10epicsMutexEP9dbChannelR11dbChannelIOjmjR14cacStateNotifyPj
000649a4 T _ZN9dbContextC1ER10epicsMutexS1_R16cacContextNotify
00064bdc T _ZN9dbContextC2ER10epicsMutexS1_R16cacContextNotify
00066984 T _ZN9dbContextD0Ev
00065280 T _ZN9dbContextD1Ev
000667ac T _ZN9dbContextD2Ev
00064b30 T _ZN9dbService13contextCreateER10epicsMutexS1_R16cacContextNotify
00000000 W _ZN9dbServiceD0Ev
00000000 W _ZN9dbServiceD1Ev
000e1fe8 T _ZN9epicsTime10addNanoSecEl
000e2e20 T _ZN9epicsTime10getCurrentEv
000e2d6c T _ZN9epicsTime8getEventERK14epicsTimeEvent
000e2500 T _ZN9epicsTimeC1ERK14epicsTimeStamp
000e1968 T _ZN9epicsTimeC1ERK14time_t_wrapper
000e23cc T _ZN9epicsTimeC1ERK17local_tm_nano_sec
000e13fc T _ZN9epicsTimeC1ERK4l_fp
000e20a0 T _ZN9epicsTimeC1ERK7timeval
000e21a0 T _ZN9epicsTimeC1ERK8timespec
000e1360 T _ZN9epicsTimeC1ERKS_
000e133c T _ZN9epicsTimeC1Ev
000e2ed0 T _ZN9epicsTimeC2ERK14epicsTimeStamp
000e1b90 T _ZN9epicsTimeC2ERK14time_t_wrapper
000e2298 T _ZN9epicsTimeC2ERK17local_tm_nano_sec
000e13b8 T _ZN9epicsTimeC2ERK4l_fp
000e2120 T _ZN9epicsTimeC2ERK7timeval
000e221c T _ZN9epicsTimeC2ERK8timespec
000e134c T _ZN9epicsTimeC2ERKS_
000e132c T _ZN9epicsTimeC2Ev
0008f014 T _ZNK10cacChannel11getHostNameER10epicsGuardI10epicsMutexEPcj
0008eec4 T _ZNK10cacChannel12accessRightsER10epicsGuardI10epicsMutexE
0008ec68 T _ZNK10cacChannel12beaconPeriodER10epicsGuardI10epicsMutexE
0008ec60 T _ZNK10cacChannel14searchAttemptsER10epicsGuardI10epicsMutexE
0008ec7c T _ZNK10cacChannel20receiveWatchdogDelayER10epicsGuardI10epicsMutexE
0008ec90 T _ZNK10cacChannel9ca_v42_okER10epicsGuardI10epicsMutexE
0008ec98 T _ZNK10cacChannel9connectedER10epicsGuardI10epicsMutexE
0008eda8 T _ZNK10cacChannel9pHostNameER10epicsGuardI10epicsMutexE
000e0e24 T _ZNK10epicsEvent16invalidSemaphore4whatEv
000e0f68 T _ZNK10epicsEvent4showEj
000dff24 T _ZNK10epicsMutex12invalidMutex4whatEv
000dff18 T _ZNK10epicsMutex17mutexCreateFailed4whatEv
000e0370 T _ZNK10epicsMutex4showEj
000f5694 T _ZNK10timerQueue4showEj
000677f0 T _ZNK11dbChannelIO10nativeTypeER10epicsGuardI10epicsMutexE
00066ff0 T _ZNK11dbChannelIO18nativeElementCountER10epicsGuardI10epicsMutexE
00067058 T _ZNK11dbChannelIO4showER10epicsGuardI10epicsMutexEj
00066ccc T _ZNK11dbChannelIO5pNameER10epicsGuardI10epicsMutexE
000671cc T _ZNK11dbChannelIO6ioShowER10epicsGuardI10epicsMutexERKjj
00066c30 T _ZNK11dbChannelIO7getNameER10epicsGuardI10epicsMutexEPcj
000ded34 T _ZNK11epicsThread11getPriorityEv
000dec08 T _ZNK11epicsThread11isSuspendedEv
000dea24 T _ZNK11epicsThread15isCurrentThreadEv
000dec70 T _ZNK11epicsThread15priorityIsEqualERKS_
000de4dc T _ZNK11epicsThread20unableToCreateThread4whatEv
000de7bc T _ZNK11epicsThread4showEj
000de4e8 T _ZNK11epicsThread5getIdEv
000ded8c T _ZNK11epicsThread7getNameEPcj
000de4f0 T _ZNK11epicsThreadeqERKS_
000c147c T _ZNK11searchTimer4showEj
000c13b4 T _ZNK11searchTimer6periodER10epicsGuardI10epicsMutexE
000ad800 T _ZNK13SearchDestTCP4showER10epicsGuardI10epicsMutexEj
000bed90 T _ZNK13hostNameCache7getNameEPcj
0009e25c T _ZNK13localHostName7getNameEPcj
000ad73c T _ZNK13tcpRecvThread4showEj
000ad738 T _ZNK13tcpSendThread4showEj
000a8608 T _ZNK13udpRecvThread4showEj
00000000 W _ZNK14epicsSingletonI19timerQueueActiveMgrE12getReferenceEv
00000000 W _ZNK14epicsSingletonI19timerQueueActiveMgrE9referencedeEv
00000000 W _ZNK14epicsSingletonI19timerQueueActiveMgrE9referenceptEv
00000000 W _ZNK14epics_auto_ptrIS_I11searchTimerL19epics_auto_ptr_type0EELS1_1EEixEj
000b83a4 T _ZNK15netReadNotifyIO4showER10epicsGuardI10epicsMutexEj
000b8828 T _ZNK15netReadNotifyIO4showEj
000b9024 T _ZNK15netSubscription4showER10epicsGuardI10epicsMutexEj
000b94e0 T _ZNK15netSubscription4showEj
000ba498 T _ZNK15tcpRecvWatchdog4showEj
000ba020 T _ZNK15tcpRecvWatchdog5delayEv
00068524 T _ZNK16dbSubscriptionIO4showER10epicsGuardI10epicsMutexEj
00067e8c T _ZNK16dbSubscriptionIO4showEj
000ec550 T _ZNK16epicsTimerNotify12expireStatus15expirationDelayEv
000eb7fc T _ZNK16epicsTimerNotify12expireStatus7restartEv
000eb1d8 T _ZNK16epicsTimerNotify4showEj
000b89c4 T _ZNK16netWriteNotifyIO4showER10epicsGuardI10epicsMutexEj
000b8e18 T _ZNK16netWriteNotifyIO4showEj
000ede18 T _ZNK16timerQueueActive4showEj
00093dac T _ZNK17ca_client_context12circuitCountEv
000933c0 T _ZNK17ca_client_context13printFormatedEPKcz
000932e4 T _ZNK17ca_client_context20varArgsPrintFormatedEPKcP13__va_list_tag
00093e50 T _ZNK17ca_client_context32beaconAnomaliesSinceProgramStartEv
00093a78 T _ZNK17ca_client_context4showEj
00093134 T _ZNK17ca_client_context8mutexRefEv
000939c8 T _ZNK17ca_client_context8selfTestEv
000efb98 T _ZNK17timerQueuePassive4showEj
000687e8 T _ZNK18dbPutNotifyBlocker4showER10epicsGuardI10epicsMutexEj
000688b0 T _ZNK18dbPutNotifyBlocker4showEj
000de4d8 T _ZNK18epicsThreadRunable4showEj
0009d01c T _ZNK19syncGroupReadNotify4showER10epicsGuardI10epicsMutexEj
0009da18 T _ZNK20syncGroupWriteNotify4showER10epicsGuardI10epicsMutexEj
000dc164 T _ZNK21ipAddrToAsciiCallBack4showEj
000c2e98 T _ZNK22repeaterSubscribeTimer4showEj
000c2868 T _ZNK23disconnectGovernorTimer4showEj
00069bc0 T _ZNK24dbContextReadNotifyCache4showER10epicsGuardI10epicsMutexEj
000e03a0 T _ZNK24epicsDeadlockDetectMutex4showEj
000dcbf0 T _ZNK26ipAddrToAsciiEnginePrivate4showEj
000dc47c T _ZNK31ipAddrToAsciiTransactionPrivate4showEj
000dc16c T _ZNK31ipAddrToAsciiTransactionPrivate7addressEv
000694f8 T _ZNK33dbContextReadNotifyCacheAllocator4showEj
000bb090 T _ZNK3bhe10updateTimeER10epicsGuardI10epicsMutexE
000bb1c0 T _ZNK3bhe4showER10epicsGuardI10epicsMutexEj
000bb38c T _ZNK3bhe4showEj
000bb438 T _ZNK3bhe6periodER10epicsGuardI10epicsMutexE
000a12f8 T _ZNK3cac12beaconPeriodER10epicsGuardI10epicsMutexERK4nciu
000a027c T _ZNK3cac12circuitCountER10epicsGuardI10epicsMutexE
0009e920 T _ZNK3cac13printFormatedER10epicsGuardI10epicsMutexEPKcz
00000000 W _ZNK3cac32beaconAnomaliesSinceProgramStartER10epicsGuardI10epicsMutexE
0009ff04 T _ZNK3cac4showER10epicsGuardI10epicsMutexEj
0009eb88 T _ZNK3cac6ioShowER10epicsGuardI10epicsMutexERKjj
0009f62c T _ZNK3cac8selfTestER10epicsGuardI10epicsMutexE
0009c404 T _ZNK4CASG4showER10epicsGuardI10epicsMutexEj
0009c5cc T _ZNK4CASG4showEj
0009b4c4 T _ZNK4CASG6verifyER10epicsGuardI10epicsMutexE
000a5c1c T _ZNK4nciu10nativeTypeER10epicsGuardI10epicsMutexE
000a5f18 T _ZNK4nciu11getHostNameER10epicsGuardI10epicsMutexEPcj
000a74c4 T _ZNK4nciu12accessRightsER10epicsGuardI10epicsMutexE
000a5eb4 T _ZNK4nciu12beaconPeriodER10epicsGuardI10epicsMutexE
000a7458 T _ZNK4nciu14searchAttemptsER10epicsGuardI10epicsMutexE
000a5c8c T _ZNK4nciu18nativeElementCountER10epicsGuardI10epicsMutexE
000a5cd4 T _ZNK4nciu20receiveWatchdogDelayER10epicsGuardI10epicsMutexE
000a62ec T _ZNK4nciu4showER10epicsGuardI10epicsMutexEj
000a69c0 T _ZNK4nciu4showEj
000a61f4 T _ZNK4nciu5pNameER10epicsGuardI10epicsMutexE
000a5f48 T _ZNK4nciu6ioShowER10epicsGuardI10epicsMutexERKjj
000a5fac T _ZNK4nciu7getNameER10epicsGuardI10epicsMutexEPcj
000a78f0 T _ZNK4nciu7nameLenER10epicsGuardI10epicsMutexE
000a5bec T _ZNK4nciu9ca_v42_okER10epicsGuardI10epicsMutexE
000a73d0 T _ZNK4nciu9connectedER10epicsGuardI10epicsMutexE
000a5ee8 T _ZNK4nciu9pHostNameER10epicsGuardI10epicsMutexE
000ed8a4 T _ZNK5timer13getExpireInfoEv
000ed6bc T _ZNK5timer4showEj
000c373c T _ZNK6netiiu11getHostNameER10epicsGuardI10epicsMutexEPcj
000c35b8 T _ZNK6netiiu17getNetworkAddressER10epicsGuardI10epicsMutexE
000c35d8 T _ZNK6netiiu20receiveWatchdogDelayER10epicsGuardI10epicsMutexE
000c3594 T _ZNK6netiiu9ca_v41_okER10epicsGuardI10epicsMutexE
000c358c T _ZNK6netiiu9ca_v42_okER10epicsGuardI10epicsMutexE
000c35ac T _ZNK6netiiu9pHostNameER10epicsGuardI10epicsMutexE
000af450 T _ZNK6tcpiiu11getHostNameER10epicsGuardI10epicsMutexEPcj
000af5f0 T _ZNK6tcpiiu17getNetworkAddressER10epicsGuardI10epicsMutexE
000ad9fc T _ZNK6tcpiiu19bytesArePendingInOSEv
000ad9cc T _ZNK6tcpiiu20receiveWatchdogDelayER10epicsGuardI10epicsMutexE
000ae144 T _ZNK6tcpiiu4showEj
00000000 W _ZNK6tcpiiu9ca_v41_okER10epicsGuardI10epicsMutexE
000af57c T _ZNK6tcpiiu9ca_v42_okER10epicsGuardI10epicsMutexE
000af3c0 T _ZNK6tcpiiu9pHostNameER10epicsGuardI10epicsMutexE
000a898c T _ZNK6udpiiu11getHostNameER10epicsGuardI10epicsMutexEPcj
000aa844 T _ZNK6udpiiu13SearchDestUDP4showER10epicsGuardI10epicsMutexEj
000a86b0 T _ZNK6udpiiu17datagramSeqNumberER10epicsGuardI10epicsMutexE
000a86e8 T _ZNK6udpiiu17getNetworkAddressER10epicsGuardI10epicsMutexE
000aa7c8 T _ZNK6udpiiu18SearchRespCallback4showER10epicsGuardI10epicsMutexEj
000a86bc T _ZNK6udpiiu20receiveWatchdogDelayER10epicsGuardI10epicsMutexE
000a9e90 T _ZNK6udpiiu4showEj
000aa54c T _ZNK6udpiiu7getRTTEER10epicsGuardI10epicsMutexE
000a8908 T _ZNK6udpiiu9ca_v41_okER10epicsGuardI10epicsMutexE
000a8934 T _ZNK6udpiiu9ca_v42_okER10epicsGuardI10epicsMutexE
000a8960 T _ZNK6udpiiu9pHostNameER10epicsGuardI10epicsMutexE
0009ab58 T _ZNK7getCopy4showEj
000b81b8 T _ZNK7noopiiu11getHostNameER10epicsGuardI10epicsMutexEPcj
000b7f14 T _ZNK7noopiiu17getNetworkAddressER10epicsGuardI10epicsMutexE
000b7ee8 T _ZNK7noopiiu20receiveWatchdogDelayER10epicsGuardI10epicsMutexE
000b8134 T _ZNK7noopiiu9ca_v41_okER10epicsGuardI10epicsMutexE
000b8160 T _ZNK7noopiiu9ca_v42_okER10epicsGuardI10epicsMutexE
000b818c T _ZNK7noopiiu9pHostNameER10epicsGuardI10epicsMutexE
00000000 W _ZNK8resTableI3bhe10inetAddrIDE4findER8tsSLListIS0_ERKS1_
00000000 W _ZNK8resTableI3bhe10inetAddrIDE4showEj
00000000 W _ZNK8resTableI3bhe10inetAddrIDE6verifyEv
00000000 W _ZNK8resTableI4CASG10chronIntIdE4findER8tsSLListIS0_ERKS1_
00000000 W _ZNK8resTableI4CASG10chronIntIdE4showEj
00000000 W _ZNK8resTableI4CASG10chronIntIdE6verifyEv
00000000 W _ZNK8resTableI4nciu10chronIntIdE4findER8tsSLListIS0_ERKS1_
00000000 W _ZNK8resTableI4nciu10chronIntIdE4showEj
00000000 W _ZNK8resTableI4nciu10chronIntIdE6verifyEv
00000000 W _ZNK8resTableI6tcpiiu10caServerIDE4findER8tsSLListIS0_ERKS1_
00000000 W _ZNK8resTableI6tcpiiu10caServerIDE4showEj
00000000 W _ZNK8resTableI8baseNMIU10chronIntIdE4findER8tsSLListIS0_ERKS1_
00000000 W _ZNK8resTableI8baseNMIU10chronIntIdE4showEj
00000000 W _ZNK8resTableI8baseNMIU10chronIntIdE6verifyEv
00000000 W _ZNK8resTableI8dbBaseIO10chronIntIdE4findER8tsSLListIS0_ERKS1_
00000000 W _ZNK8resTableI8dbBaseIO10chronIntIdE6verifyEv
00065600 T _ZNK9dbContext12circuitCountER10epicsGuardI10epicsMutexE
0006569c T _ZNK9dbContext32beaconAnomaliesSinceProgramStartER10epicsGuardI10epicsMutexE
00065a84 T _ZNK9dbContext4showER10epicsGuardI10epicsMutexEj
00064d9c T _ZNK9dbContext4showEj
00065bb0 T _ZNK9dbContext6ioShowER10epicsGuardI10epicsMutexERKjj
0006555c T _ZNK9dbContext8selfTestER10epicsGuardI10epicsMutexE
00064e48 T _ZNK9dbContext9showAllIOERK11dbChannelIOj
000e3fac T _ZNK9epicsTime4showEj
000e3a98 T _ZNK9epicsTime8strftimeEPcjPKc
000e3050 T _ZNK9epicsTimecv14epicsTimeStampEv
000e35a8 T _ZNK9epicsTimecv14gm_tm_nano_secEv
000e1750 T _ZNK9epicsTimecv14time_t_wrapperEv
000e3820 T _ZNK9epicsTimecv17local_tm_nano_secEv
000e1374 T _ZNK9epicsTimecv4l_fpEv
000e18b8 T _ZNK9epicsTimecv7timevalEv
000e1918 T _ZNK9epicsTimecv8timespecEv
000e15ac T _ZNK9epicsTimeleERKS_
000e160c T _ZNK9epicsTimeltERKS_
000e1440 T _ZNK9epicsTimemiERKS_
000e1e9c T _ZNK9epicsTimeplERKd
         U _ZNKSt12_String_base5_XlenEv
         U _ZNKSt12_String_base5_XranEv
00000000 W _ZNSs5_GrowEjb
00000000 W _ZNSs6assignERKSsjj
00000000 W _ZNSsC1EPKc
         U _ZNSt11logic_errorD1Ev
         U _ZNSt13runtime_errorD1Ev
         U _ZNSt9bad_allocD1Ev
         U _ZNSt9exceptionD2Ev
         U _ZSt10unexpectedv
00000000 V _ZTI10SearchDest
00000000 V _ZTI10caServerID
00000000 V _ZTI10cacChannel
00000000 V _ZTI10cacContext
00000000 V _ZTI10cacRecycle
00000000 V _ZTI10cacService
00000000 V _ZTI10chronIntId
00000000 V _ZTI10epicsTimer
00000000 V _ZTI10inetAddrID
00000000 V _ZTI10timerQueue
00000000 V _ZTI11caErrorCode
00000000 V _ZTI11channelNode
00000000 V _ZTI11dbChannelIO
00000000 V _ZTI11getCallback
00000000 V _ZTI11putCallback
00000000 V _ZTI11searchTimer
00000000 V _ZTI12bheFreeStore
00000000 V _ZTI13SearchDestTCP
00000000 V _ZTI13cacReadNotify
00000000 V _ZTI13chronIntIdResI4CASGE
00000000 V _ZTI13chronIntIdResI4nciuE
00000000 V _ZTI13chronIntIdResI8baseNMIUE
00000000 V _ZTI13chronIntIdResI8dbBaseIOE
00000000 V _ZTI13hostNameCache
00000000 V _ZTI13tcpRecvThread
00000000 V _ZTI13tcpSendThread
00000000 V _ZTI13udpRecvThread
00000000 V _ZTI14cacStateNotify
00000000 V _ZTI14cacWriteNotify
00000000 V _ZTI14epicsTimerForC
00000000 V _ZTI15epicsTimerQueue
00000000 V _ZTI15netReadNotifyIO
00000000 V _ZTI15netSubscription
00000000 V _ZTI15oldSubscription
00000000 V _ZTI15syncGroupNotify
00000000 V _ZTI15tcpRecvWatchdog
00000000 V _ZTI15tcpSendWatchdog
00000000 V _ZTI15wireRecvAdapter
00000000 V _ZTI15wireSendAdapter
00000000 V _ZTI16bheMemoryManager
00000000 V _ZTI16cacChannelNotify
00000000 V _ZTI16cacContextNotify
00000000 V _ZTI16dbSubscriptionIO
00000000 V _ZTI16epicsTimerNotify
00000000 V _ZTI16netWriteNotifyIO
00000000 V _ZTI16oldChannelNotify
00000000 V _ZTI16timerQueueActive
00000000 V _ZTI17ca_client_context
00000000 V _ZTI17searchTimerNotify
00000000 V _ZTI17timerQueuePassive
00000000 V _ZTI18chronIntIdResTableI4CASGE
00000000 V _ZTI18chronIntIdResTableI4nciuE
00000000 V _ZTI18chronIntIdResTableI8baseNMIUE
00000000 V _ZTI18chronIntIdResTableI8dbBaseIOE
00000000 V _ZTI18dbPutNotifyBlocker
00000000 V _ZTI18epicsThreadRunable
00000000 V _ZTI18sourceFileLocationI11caErrorCodeE
00000000 V _ZTI18sourceFileLocationIN17ca_client_context8noSocketEE
00000000 V _ZTI18sourceFileLocationIN6udpiiu8noSocketEE
00000000 V _ZTI18sourceFileLocationIN9epicsTime24unableToFetchCurrentTimeEE
00000000 V _ZTI18sourceFileLocationIN9epicsTime25formatProblemWithStructTMEE
00000000 V _ZTI19comBufMemoryManager
00000000 V _ZTI19ipAddrToAsciiEngine
00000000 V _ZTI19repeaterTimerNotify
00000000 V _ZTI19syncGroupReadNotify
00000000 V _ZTI20syncGroupWriteNotify
00000000 V _ZTI21epicsTimerQueueActive
00000000 V _ZTI21epicsTimerQueueNotify
00000000 V _ZTI21ipAddrToAsciiCallBack
00000000 V _ZTI21privateInterfaceForIO
00000000 V _ZTI22cacComBufMemoryManager
00000000 V _ZTI22epicsTimerQueuePassive
00000000 V _ZTI22repeaterSubscribeTimer
00000000 V _ZTI23disconnectGovernorTimer
00000000 V _ZTI23msgForMultiplyDefinedPV
00000000 V _ZTI24dbContextPrivateListOfIO
00000000 V _ZTI24disconnectGovernorNotify
00000000 V _ZTI24ipAddrToAsciiTransaction
00000000 V _ZTI25epicsTimerQueueActiveForC
00000000 V _ZTI26epicsTimerQueuePassiveForC
00000000 V _ZTI26ipAddrToAsciiEnginePrivate
00000000 V _ZTI26timerQueueActiveMgrPrivate
00000000 V _ZTI28callbackForMultiplyDefinedPV
00000000 V _ZTI31ipAddrToAsciiTransactionPrivate
00000000 V _ZTI3bhe
00000000 V _ZTI3cac
00000000 V _ZTI4CASG
00000000 V _ZTI4nciu
00000000 V _ZTI5intIdIjLj8ELj32EE
00000000 V _ZTI5timer
00000000 V _ZTI6netiiu
00000000 V _ZTI6tcpiiu
00000000 V _ZTI6udpiiu
00000000 V _ZTI7getCopy
00000000 V _ZTI7noopiiu
00000000 V _ZTI8baseNMIU
00000000 V _ZTI8dbBaseIO
00000000 V _ZTI8resTableI3bhe10inetAddrIDE
00000000 V _ZTI8resTableI4CASG10chronIntIdE
00000000 V _ZTI8resTableI4nciu10chronIntIdE
00000000 V _ZTI8resTableI6tcpiiu10caServerIDE
00000000 V _ZTI8resTableI8baseNMIU10chronIntIdE
00000000 V _ZTI8resTableI8dbBaseIO10chronIntIdE
00000000 V _ZTI8tsDLNodeI10SearchDestE
00000000 V _ZTI8tsDLNodeI15syncGroupNotifyE
00000000 V _ZTI8tsDLNodeI16dbSubscriptionIOE
00000000 V _ZTI8tsDLNodeI23msgForMultiplyDefinedPVE
00000000 V _ZTI8tsDLNodeI25epicsTimerQueueActiveForCE
00000000 V _ZTI8tsDLNodeI31ipAddrToAsciiTransactionPrivateE
00000000 V _ZTI8tsDLNodeI4nciuE
00000000 V _ZTI8tsDLNodeI5timerE
00000000 V _ZTI8tsDLNodeI6tcpiiuE
00000000 V _ZTI8tsDLNodeI8baseNMIUE
00000000 V _ZTI8tsSLNodeI3bheE
00000000 V _ZTI8tsSLNodeI4CASGE
00000000 V _ZTI8tsSLNodeI4nciuE
00000000 V _ZTI8tsSLNodeI6tcpiiuE
00000000 V _ZTI8tsSLNodeI8baseNMIUE
00000000 V _ZTI8tsSLNodeI8dbBaseIOE
00000000 V _ZTI9dbContext
00000000 V _ZTI9dbService
00000000 V _ZTIN10SearchDest8CallbackE
00000000 V _ZTIN10cacChannel11badPriorityE
00000000 V _ZTIN10cacChannel11outOfBoundsE
00000000 V _ZTIN10cacChannel12noReadAccessE
00000000 V _ZTIN10cacChannel12notConnectedE
00000000 V _ZTIN10cacChannel13noWriteAccessE
00000000 V _ZTIN10cacChannel15requestTimedOutE
00000000 V _ZTIN10cacChannel17badEventSelectionE
00000000 V _ZTIN10cacChannel20msgBodyCacheTooSmallE
00000000 V _ZTIN10cacChannel20unsupportedByServiceE
00000000 V _ZTIN10cacChannel7badTypeE
00000000 V _ZTIN10cacChannel9badStringE
00000000 V _ZTIN10epicsEvent16invalidSemaphoreE
00000000 V _ZTIN10epicsMutex12invalidMutexE
00000000 V _ZTIN10epicsMutex17mutexCreateFailedE
00000000 V _ZTIN11epicsThread13exitExceptionE
00000000 V _ZTIN11epicsThread20unableToCreateThreadE
00000000 V _ZTIN17ca_client_context8noSocketE
00000000 V _ZTIN22epicsThreadPrivateBase27unableToCreateThreadPrivateE
00000000 V _ZTIN6comBuf25insufficentBytesAvailableE
00000000 V _ZTIN6udpiiu13SearchDestUDPE
00000000 V _ZTIN6udpiiu18SearchRespCallbackE
00000000 V _ZTIN6udpiiu21M_repeaterTimerNotifyE
00000000 V _ZTIN6udpiiu8noSocketE
00000000 V _ZTIN9epicsTime24unableToFetchCurrentTimeE
00000000 V _ZTIN9epicsTime25formatProblemWithStructTME
         U _ZTISt11logic_error
         U _ZTISt13runtime_error
         U _ZTISt9bad_alloc
         U _ZTISt9exception
         U _ZTIv
00000000 V _ZTS10SearchDest
00000000 V _ZTS10caServerID
00000000 V _ZTS10cacChannel
00000000 V _ZTS10cacContext
00000000 V _ZTS10cacRecycle
00000000 V _ZTS10cacService
00000000 V _ZTS10chronIntId
00000000 V _ZTS10epicsTimer
00000000 V _ZTS10inetAddrID
00000000 V _ZTS10timerQueue
00000000 V _ZTS11caErrorCode
00000000 V _ZTS11channelNode
00000000 V _ZTS11dbChannelIO
00000000 V _ZTS11getCallback
00000000 V _ZTS11putCallback
00000000 V _ZTS11searchTimer
00000000 V _ZTS12bheFreeStore
00000000 V _ZTS13SearchDestTCP
00000000 V _ZTS13cacReadNotify
00000000 V _ZTS13chronIntIdResI4CASGE
00000000 V _ZTS13chronIntIdResI4nciuE
00000000 V _ZTS13chronIntIdResI8baseNMIUE
00000000 V _ZTS13chronIntIdResI8dbBaseIOE
00000000 V _ZTS13hostNameCache
00000000 V _ZTS13tcpRecvThread
00000000 V _ZTS13tcpSendThread
00000000 V _ZTS13udpRecvThread
00000000 V _ZTS14cacStateNotify
00000000 V _ZTS14cacWriteNotify
00000000 V _ZTS14epicsTimerForC
00000000 V _ZTS15epicsTimerQueue
00000000 V _ZTS15netReadNotifyIO
00000000 V _ZTS15netSubscription
00000000 V _ZTS15oldSubscription
00000000 V _ZTS15syncGroupNotify
00000000 V _ZTS15tcpRecvWatchdog
00000000 V _ZTS15tcpSendWatchdog
00000000 V _ZTS15wireRecvAdapter
00000000 V _ZTS15wireSendAdapter
00000000 V _ZTS16bheMemoryManager
00000000 V _ZTS16cacChannelNotify
00000000 V _ZTS16cacContextNotify
00000000 V _ZTS16dbSubscriptionIO
00000000 V _ZTS16epicsTimerNotify
00000000 V _ZTS16netWriteNotifyIO
00000000 V _ZTS16oldChannelNotify
00000000 V _ZTS16timerQueueActive
00000000 V _ZTS17ca_client_context
00000000 V _ZTS17searchTimerNotify
00000000 V _ZTS17timerQueuePassive
00000000 V _ZTS18chronIntIdResTableI4CASGE
00000000 V _ZTS18chronIntIdResTableI4nciuE
00000000 V _ZTS18chronIntIdResTableI8baseNMIUE
00000000 V _ZTS18chronIntIdResTableI8dbBaseIOE
00000000 V _ZTS18dbPutNotifyBlocker
00000000 V _ZTS18epicsThreadRunable
00000000 V _ZTS18sourceFileLocationI11caErrorCodeE
00000000 V _ZTS18sourceFileLocationIN17ca_client_context8noSocketEE
00000000 V _ZTS18sourceFileLocationIN6udpiiu8noSocketEE
00000000 V _ZTS18sourceFileLocationIN9epicsTime24unableToFetchCurrentTimeEE
00000000 V _ZTS18sourceFileLocationIN9epicsTime25formatProblemWithStructTMEE
00000000 V _ZTS19comBufMemoryManager
00000000 V _ZTS19ipAddrToAsciiEngine
00000000 V _ZTS19repeaterTimerNotify
00000000 V _ZTS19syncGroupReadNotify
00000000 V _ZTS20syncGroupWriteNotify
00000000 V _ZTS21epicsTimerQueueActive
00000000 V _ZTS21epicsTimerQueueNotify
00000000 V _ZTS21ipAddrToAsciiCallBack
00000000 V _ZTS21privateInterfaceForIO
00000000 V _ZTS22cacComBufMemoryManager
00000000 V _ZTS22epicsTimerQueuePassive
00000000 V _ZTS22repeaterSubscribeTimer
00000000 V _ZTS23disconnectGovernorTimer
00000000 V _ZTS23msgForMultiplyDefinedPV
00000000 V _ZTS24dbContextPrivateListOfIO
00000000 V _ZTS24disconnectGovernorNotify
00000000 V _ZTS24ipAddrToAsciiTransaction
00000000 V _ZTS25epicsTimerQueueActiveForC
00000000 V _ZTS26epicsTimerQueuePassiveForC
00000000 V _ZTS26ipAddrToAsciiEnginePrivate
00000000 V _ZTS26timerQueueActiveMgrPrivate
00000000 V _ZTS28callbackForMultiplyDefinedPV
00000000 V _ZTS31ipAddrToAsciiTransactionPrivate
00000000 V _ZTS3bhe
00000000 V _ZTS3cac
00000000 V _ZTS4CASG
00000000 V _ZTS4nciu
00000000 V _ZTS5intIdIjLj8ELj32EE
00000000 V _ZTS5timer
00000000 V _ZTS6netiiu
00000000 V _ZTS6tcpiiu
00000000 V _ZTS6udpiiu
00000000 V _ZTS7getCopy
00000000 V _ZTS7noopiiu
00000000 V _ZTS8baseNMIU
00000000 V _ZTS8dbBaseIO
00000000 V _ZTS8resTableI3bhe10inetAddrIDE
00000000 V _ZTS8resTableI4CASG10chronIntIdE
00000000 V _ZTS8resTableI4nciu10chronIntIdE
00000000 V _ZTS8resTableI6tcpiiu10caServerIDE
00000000 V _ZTS8resTableI8baseNMIU10chronIntIdE
00000000 V _ZTS8resTableI8dbBaseIO10chronIntIdE
00000000 V _ZTS8tsDLNodeI10SearchDestE
00000000 V _ZTS8tsDLNodeI15syncGroupNotifyE
00000000 V _ZTS8tsDLNodeI16dbSubscriptionIOE
00000000 V _ZTS8tsDLNodeI23msgForMultiplyDefinedPVE
00000000 V _ZTS8tsDLNodeI25epicsTimerQueueActiveForCE
00000000 V _ZTS8tsDLNodeI31ipAddrToAsciiTransactionPrivateE
00000000 V _ZTS8tsDLNodeI4nciuE
00000000 V _ZTS8tsDLNodeI5timerE
00000000 V _ZTS8tsDLNodeI6tcpiiuE
00000000 V _ZTS8tsDLNodeI8baseNMIUE
00000000 V _ZTS8tsSLNodeI3bheE
00000000 V _ZTS8tsSLNodeI4CASGE
00000000 V _ZTS8tsSLNodeI4nciuE
00000000 V _ZTS8tsSLNodeI6tcpiiuE
00000000 V _ZTS8tsSLNodeI8baseNMIUE
00000000 V _ZTS8tsSLNodeI8dbBaseIOE
00000000 V _ZTS9dbContext
00000000 V _ZTS9dbService
00000000 V _ZTSN10SearchDest8CallbackE
00000000 V _ZTSN10cacChannel11badPriorityE
00000000 V _ZTSN10cacChannel11outOfBoundsE
00000000 V _ZTSN10cacChannel12noReadAccessE
00000000 V _ZTSN10cacChannel12notConnectedE
00000000 V _ZTSN10cacChannel13noWriteAccessE
00000000 V _ZTSN10cacChannel15requestTimedOutE
00000000 V _ZTSN10cacChannel17badEventSelectionE
00000000 V _ZTSN10cacChannel20msgBodyCacheTooSmallE
00000000 V _ZTSN10cacChannel20unsupportedByServiceE
00000000 V _ZTSN10cacChannel7badTypeE
00000000 V _ZTSN10cacChannel9badStringE
00000000 V _ZTSN10epicsEvent16invalidSemaphoreE
00000000 V _ZTSN10epicsMutex12invalidMutexE
00000000 V _ZTSN10epicsMutex17mutexCreateFailedE
00000000 V _ZTSN11epicsThread13exitExceptionE
00000000 V _ZTSN11epicsThread20unableToCreateThreadE
00000000 V _ZTSN17ca_client_context8noSocketE
00000000 V _ZTSN22epicsThreadPrivateBase27unableToCreateThreadPrivateE
00000000 V _ZTSN6comBuf25insufficentBytesAvailableE
00000000 V _ZTSN6udpiiu13SearchDestUDPE
00000000 V _ZTSN6udpiiu18SearchRespCallbackE
00000000 V _ZTSN6udpiiu21M_repeaterTimerNotifyE
00000000 V _ZTSN6udpiiu8noSocketE
00000000 V _ZTSN9epicsTime24unableToFetchCurrentTimeE
00000000 V _ZTSN9epicsTime25formatProblemWithStructTME
00000000 V _ZTV10SearchDest
00000000 V _ZTV10cacChannel
00000000 V _ZTV10cacContext
00000000 V _ZTV10cacRecycle
00000000 V _ZTV10cacService
00000000 V _ZTV10epicsTimer
00000000 V _ZTV10timerQueue
00000000 V _ZTV11dbChannelIO
00000000 V _ZTV11getCallback
00000000 V _ZTV11putCallback
00000000 V _ZTV11searchTimer
00000000 V _ZTV12bheFreeStore
00000000 V _ZTV13SearchDestTCP
00000000 V _ZTV13cacReadNotify
00000000 V _ZTV13hostNameCache
00000000 V _ZTV13tcpRecvThread
00000000 V _ZTV13tcpSendThread
00000000 V _ZTV13udpRecvThread
00000000 V _ZTV14cacStateNotify
00000000 V _ZTV14cacWriteNotify
00000000 V _ZTV14epicsTimerForC
00000000 V _ZTV15epicsTimerQueue
00000000 V _ZTV15netReadNotifyIO
00000000 V _ZTV15netSubscription
00000000 V _ZTV15oldSubscription
00000000 V _ZTV15syncGroupNotify
00000000 V _ZTV15tcpRecvWatchdog
00000000 V _ZTV15tcpSendWatchdog
00000000 V _ZTV15wireRecvAdapter
00000000 V _ZTV15wireSendAdapter
00000000 V _ZTV16bheMemoryManager
00000000 V _ZTV16cacChannelNotify
00000000 V _ZTV16cacContextNotify
00000000 V _ZTV16dbSubscriptionIO
00000000 V _ZTV16epicsTimerNotify
00000000 V _ZTV16netWriteNotifyIO
00000000 V _ZTV16oldChannelNotify
00000000 V _ZTV16timerQueueActive
00000000 V _ZTV17ca_client_context
00000000 V _ZTV17searchTimerNotify
00000000 V _ZTV17timerQueuePassive
00000000 V _ZTV18chronIntIdResTableI4CASGE
00000000 V _ZTV18chronIntIdResTableI4nciuE
00000000 V _ZTV18chronIntIdResTableI8baseNMIUE
00000000 V _ZTV18chronIntIdResTableI8dbBaseIOE
00000000 V _ZTV18dbPutNotifyBlocker
00000000 V _ZTV18epicsThreadRunable
00000000 V _ZTV19comBufMemoryManager
00000000 V _ZTV19ipAddrToAsciiEngine
00000000 V _ZTV19repeaterTimerNotify
00000000 V _ZTV19syncGroupReadNotify
00000000 V _ZTV20syncGroupWriteNotify
00000000 V _ZTV21epicsTimerQueueActive
00000000 V _ZTV21epicsTimerQueueNotify
00000000 V _ZTV21ipAddrToAsciiCallBack
00000000 V _ZTV21privateInterfaceForIO
00000000 V _ZTV22cacComBufMemoryManager
00000000 V _ZTV22epicsTimerQueuePassive
00000000 V _ZTV22repeaterSubscribeTimer
00000000 V _ZTV23disconnectGovernorTimer
00000000 V _ZTV23msgForMultiplyDefinedPV
00000000 V _ZTV24disconnectGovernorNotify
00000000 V _ZTV24ipAddrToAsciiTransaction
00000000 V _ZTV25epicsTimerQueueActiveForC
00000000 V _ZTV26epicsTimerQueuePassiveForC
00000000 V _ZTV26ipAddrToAsciiEnginePrivate
00000000 V _ZTV26timerQueueActiveMgrPrivate
00000000 V _ZTV28callbackForMultiplyDefinedPV
00000000 V _ZTV31ipAddrToAsciiTransactionPrivate
00000000 V _ZTV3cac
00000000 V _ZTV4nciu
00000000 V _ZTV5timer
00000000 V _ZTV6netiiu
00000000 V _ZTV6tcpiiu
00000000 V _ZTV6udpiiu
00000000 V _ZTV7getCopy
00000000 V _ZTV7noopiiu
00000000 V _ZTV8baseNMIU
00000000 V _ZTV8dbBaseIO
00000000 V _ZTV8resTableI3bhe10inetAddrIDE
00000000 V _ZTV8resTableI4CASG10chronIntIdE
00000000 V _ZTV8resTableI4nciu10chronIntIdE
00000000 V _ZTV8resTableI6tcpiiu10caServerIDE
00000000 V _ZTV8resTableI8baseNMIU10chronIntIdE
00000000 V _ZTV8resTableI8dbBaseIO10chronIntIdE
00000000 V _ZTV9dbContext
00000000 V _ZTV9dbService
00000000 V _ZTVN10SearchDest8CallbackE
         U _ZTVN10__cxxabiv117__class_type_infoE
         U _ZTVN10__cxxabiv120__si_class_type_infoE
         U _ZTVN10__cxxabiv121__vmi_class_type_infoE
00000000 V _ZTVN10epicsEvent16invalidSemaphoreE
00000000 V _ZTVN10epicsMutex12invalidMutexE
00000000 V _ZTVN10epicsMutex17mutexCreateFailedE
00000000 V _ZTVN11epicsThread20unableToCreateThreadE
00000000 V _ZTVN6udpiiu13SearchDestUDPE
00000000 V _ZTVN6udpiiu18SearchRespCallbackE
00000000 V _ZTVN6udpiiu21M_repeaterTimerNotifyE
         U _ZTVSt11logic_error
         U _ZTVSt13runtime_error
         U _ZTVSt9bad_alloc
000ee424 T _ZThn12_N16timerQueueActiveD0Ev
000ee758 T _ZThn12_N16timerQueueActiveD1Ev
0009d148 T _ZThn12_N19syncGroupReadNotify10completionER10epicsGuardI10epicsMutexEjmPKv
0009d09c T _ZThn12_N19syncGroupReadNotify9exceptionER10epicsGuardI10epicsMutexEiPKcjm
0009d25c T _ZThn12_N19syncGroupReadNotifyD0Ev
0009d364 T _ZThn12_N19syncGroupReadNotifyD1Ev
0009db4c T _ZThn12_N20syncGroupWriteNotify10completionER10epicsGuardI10epicsMutexE
0009da94 T _ZThn12_N20syncGroupWriteNotify9exceptionER10epicsGuardI10epicsMutexEiPKcjm
0009dbe8 T _ZThn12_N20syncGroupWriteNotifyD0Ev
0009dcf0 T _ZThn12_N20syncGroupWriteNotifyD1Ev
000ec318 T _ZThn12_N25epicsTimerQueueActiveForCD0Ev
000ebd6c T _ZThn12_N25epicsTimerQueueActiveForCD1Ev
000a5d04 T _ZThn28_N4nciu18ioCompletionNotifyER10epicsGuardI10epicsMutexER8baseNMIU
000a6a70 T _ZThn28_N4nciuD0Ev
000a6b08 T _ZThn28_N4nciuD1Ev
000a5c84 T _ZThn28_NK4nciu18nativeElementCountER10epicsGuardI10epicsMutexE
000a73c8 T _ZThn28_NK4nciu9connectedER10epicsGuardI10epicsMutexE
000b2890 T _ZThn36_N6tcpiiu9sendBytesEPKvjRK9epicsTime
000ae5c0 T _ZThn36_N6tcpiiuD0Ev
000ae95c T _ZThn36_N6tcpiiuD1Ev
000b2534 T _ZThn40_N6tcpiiu9recvBytesEPvjR12statusWireIO
000ae5b8 T _ZThn40_N6tcpiiuD0Ev
000ae954 T _ZThn40_N6tcpiiuD1Ev
000ec264 T _ZThn4_N14epicsTimerForC7destroyEv
000ebe84 T _ZThn4_N14epicsTimerForCD0Ev
000ebf34 T _ZThn4_N14epicsTimerForCD1Ev
000ee1c0 T _ZThn4_N16timerQueueActive3runEv
000ee434 T _ZThn4_N16timerQueueActiveD0Ev
000ee768 T _ZThn4_N16timerQueueActiveD1Ev
000ec328 T _ZThn4_N25epicsTimerQueueActiveForCD0Ev
000ebd7c T _ZThn4_N25epicsTimerQueueActiveForCD1Ev
000eb8a4 T _ZThn4_N26epicsTimerQueuePassiveForCD0Ev
000eb954 T _ZThn4_N26epicsTimerQueuePassiveForCD1Ev
000dd840 T _ZThn4_N26ipAddrToAsciiEnginePrivate3runEv
000dc594 T _ZThn4_N26ipAddrToAsciiEnginePrivateD0Ev
000dc7c0 T _ZThn4_N26ipAddrToAsciiEnginePrivateD1Ev
0009f9ac T _ZThn4_N3cac19recycleReadNotifyIOER10epicsGuardI10epicsMutexER15netReadNotifyIO
0009f8b4 T _ZThn4_N3cac19recycleSubscriptionER10epicsGuardI10epicsMutexER15netSubscription
0009f930 T _ZThn4_N3cac20recycleWriteNotifyIOER10epicsGuardI10epicsMutexER16netWriteNotifyIO
000a4024 T _ZThn4_N3cacD0Ev
000a48a8 T _ZThn4_N3cacD1Ev
000aa6b8 T _ZThn4_N6udpiiu10updateRTTEER10epicsGuardI10epicsMutexEd
000a9a98 T _ZThn4_N6udpiiu12boostChannelER10epicsGuardI10epicsMutexER4nciu
000aadcc T _ZThn4_N6udpiiu13datagramFlushER10epicsGuardI10epicsMutexERK9epicsTime
000a9b0c T _ZThn4_N6udpiiu18noSearchRespNotifyER10epicsGuardI10epicsMutexER4nciuj
000acc80 T _ZThn4_N6udpiiuD0Ev
000ad028 T _ZThn4_N6udpiiuD1Ev
000ede10 T _ZThn4_NK16timerQueueActive4showEj
000dcbe8 T _ZThn4_NK26ipAddrToAsciiEnginePrivate4showEj
000a86a8 T _ZThn4_NK6udpiiu17datagramSeqNumberER10epicsGuardI10epicsMutexE
000aa544 T _ZThn4_NK6udpiiu7getRTTEER10epicsGuardI10epicsMutexE
000ee188 T _ZThn8_N16timerQueueActive10rescheduleEv
000eddf8 T _ZThn8_N16timerQueueActive7quantumEv
000ee42c T _ZThn8_N16timerQueueActiveD0Ev
000ee760 T _ZThn8_N16timerQueueActiveD1Ev
000ec320 T _ZThn8_N25epicsTimerQueueActiveForCD0Ev
000ebd74 T _ZThn8_N25epicsTimerQueueActiveForCD1Ev
000a1e4c T _ZThn8_N3cac23pvMultiplyDefinedNotifyER23msgForMultiplyDefinedPVPKcS3_S3_
000a401c T _ZThn8_N3cacD0Ev
000a48a0 T _ZThn8_N3cacD1Ev
000a9a24 T _ZThn8_N6udpiiu15govExpireNotifyER10epicsGuardI10epicsMutexER4nciu
000acc78 T _ZThn8_N6udpiiuD0Ev
000ad020 T _ZThn8_N6udpiiuD1Ev
00004a50 b _ZZ10osdNTPInitE9host_addr
00002c28 b _ZZ13verifyClientsR10tsFreeListI14repeaterClientLj32E10epicsMutexEE10theClients
00002c1c b _ZZ19register_new_clientR11osiSockAddrR10tsFreeListI14repeaterClientLj32E10epicsMutexEE4init
000020c4 d _ZZ19register_new_clientR11osiSockAddrR10tsFreeListI14repeaterClientLj32E10epicsMutexEE8testSock
000001f8 b _ZZ36autoOnOff_registerRecordDeviceDriverE8executed
00002c40 b _ZZ6fanOutRK11osiSockAddrPKvjR10tsFreeListI14repeaterClientLj32E10epicsMutexEE10theClients
000026b0 d _ZZ9iocshBodyE5pairs
0000573c r _ZZN17ca_client_context7vSignalEiPKciS1_P13__va_list_tagE8severity
0000575c r _ZZN4CASG3getER10epicsGuardI10epicsMutexEP16oldChannelNotifyjmPvE5C$143
00005764 r _ZZN4CASG3putER10epicsGuardI10epicsMutexEP16oldChannelNotifyjmPKvE5C$142
00002c04 b _ZZN6tcpiiu15processIncomingERK9epicsTimeR15callbackManagerE4once
00004198 b _ZZN9epicsTimeC1ERK14time_t_wrapperE3lti
00002be0 b _ZZNK10cacChannel12accessRightsER10epicsGuardI10epicsMutexEE2ar
00007b5c r _ZZNK9epicsTime8strftimeEPcjPKcE10pDoesntFit
00007b70 r _ZZNK9epicsTime8strftimeEPcjPKcE3div
00007b6c r _ZZNK9epicsTime8strftimeEPcjPKcE4pOVF
00004188 b _ZZNK9epicsTimecv14time_t_wrapperEvE3lti
         U _ZdaPv
         U _ZdlPv
         U _Znaj
         U _Znwj
         U __assert
         U __ctype
         U __ctype_tolower
         U __ctype_toupper
         U __cxa_allocate_exception
         U __cxa_begin_catch
         U __cxa_call_unexpected
         U __cxa_end_catch
         U __cxa_free_exception
         U __cxa_guard_abort
         U __cxa_guard_acquire
         U __cxa_guard_release
         U __cxa_pure_virtual
         U __cxa_rethrow
         U __cxa_throw
         U __errno
         U __gxx_personality_v0
         U __stderr
         U __stdin
         U __stdout
         U __swbuf
         U __udivdi3
         U __umoddi3
00000368 D aSubRSET
000181a0 t aSubRecordSizeOffset
000d9458 T aToIPAddr
00000228 D aaiRSET
00012140 t aaiRecordSizeOffset
00000278 D aaoRSET
00013094 t aaoRecordSizeOffset
         U abort
         U abs
         U accept
00062b94 t accessRightsCallback
00083c78 t access_rights_reply
         U acos
00060b20 t addAction
00090950 T addAddrToChannelAccessAddressList
0001065c t addProg
00057420 t addToList
000241f4 t add_count
0003da3c t add_lsi
0003d864 t add_lso
0003d788 t add_printf
00038918 t add_record
00038b3c t add_record
0003aabc t add_record
0003b0a0 t add_record
0003b684 t add_record
0003bc68 t add_record
0003c24c t add_record
0003c84c t add_record
0003da60 t add_stringin
0003d6ac t add_stringout
00004a70 b addr$6700
000d9380 t addrArrayToUL
000d97b0 T adjustToWorstCaseAlignment
000002c8 D aiRSET
000147b0 t aiRecordSizeOffset
0000115c d ai_channels
00042474 t allocLockSet
000ea32c t allocNode
0003e370 t allocPvt
0003e620 t allocPvt
0003ee0c t allocPvt
00075178 t allocTemp
0000271c d anyFuncs
000e9eb4 t anyNotify
00000318 D aoRSET
00016440 t aoRecordSizeOffset
00005378 r argPdbbase
00005380 r argRecType
0003e540 t arrInitialize
00005d80 r asAccessName
00002c54 B asActive
000c6d10 T asAddClient
000c6c10 T asAddMember
000c68e8 t asAddMemberPvt
000c70c8 t asAsgAdd
00000234 B asCaDebug
000403e0 T asCaStart
00040288 T asCaStop
0004061c t asCaTask
00000248 b asCaTaskAddChannels
0000024c b asCaTaskClearChannels
00000240 b asCaTaskLock
00000244 b asCaTaskWait
000c4234 T asCalloc
000c60b4 T asChangeClient
000c6ab8 T asChangeGroup
000c5fc8 T asCompute
000c63f0 T asComputeAllAsg
000c6514 T asComputeAsg
000c6200 t asComputeAsgPvt
000c5d28 t asComputePvt
0003ee4c T asDbGetAsl
0003ee58 T asDbGetMemberPvt
000c4d84 T asDump
000c4364 T asDumpFP
000c5940 T asDumpHag
000c5788 T asDumpHagFP
000c4328 T asDumpHash
0008a4f8 t asDumpHashCallFunc
000c42dc T asDumpHashFP
00004b4c r asDumpHashFuncDef
000c518c T asDumpMem
000c4df0 T asDumpMemFP
000c573c T asDumpRules
000c51f8 T asDumpRulesFP
000c5b44 T asDumpUag
000c598c T asDumpUagFP
000c3e68 T asFreeAll
000c3c68 T asGetClientPvt
000c3c20 T asGetMemberPvt
0003fa30 T asInit
0003f4d4 T asInitAsyn
0008a680 t asInitCallFunc
0003f66c t asInitCommon
0003ee40 t asInitCommonOnce
00000230 b asInitCommonOnceFlag$4641
000c9414 T asInitFP
000c95ac T asInitFile
00004aec r asInitFuncDef
0003f974 t asInitTask
00000228 b asInitTheadId
000c80c0 T asInitialize
000c96cc t asInitializeOnce
00002c68 b asInitializeOnceFlag$2798
0008a3c4 T asIocRegister
00005d78 r asLevelName
00002c90 b asLock
000c5b90 T asPutClientPvt
000c3c48 T asPutMemberPvt
000c5c48 T asRegisterClientCallback
000c6788 T asRemoveClient
000c6600 T asRemoveMember
0003fc00 T asSetFilename
00004b84 r asSetFilenameArg0
00004b58 r asSetFilenameArgs
0008a6dc t asSetFilenameCallFunc
00004ad4 r asSetFilenameFuncDef
0003fae8 T asSetSubstitutions
00004b8c r asSetSubstitutionsArg0
00004b5c r asSetSubstitutionsArgs
0008a6ac t asSetSubstitutionsCallFunc
00004ae0 r asSetSubstitutionsFuncDef
0003fa90 T asShutdown
0003fa5c t asSpcAsCallback
000c4268 T asStrdup
0003dc9c t asSub
0003dda4 T asSubInit
0003dcd4 T asSubProcess
00001454 d asSubRef
00005d8c r asTrapOption
000c970c T asTrapWriteAfterWrite
000c98a8 T asTrapWriteBeforeWithData
000c9c54 T asTrapWriteRegisterListener
000c9ab8 T asTrapWriteUnregisterListener
0003fd68 T ascaStats
0004023c T ascar
00004bd4 r ascarArg0
00004b80 r ascarArgs
0008a524 t ascarCallFunc
0003feb4 T ascarFP
00004b40 r ascarFuncDef
0003f128 T asdbdump
0008a654 t asdbdumpCallFunc
0003f0e8 T asdbdumpFP
00004af8 r asdbdumpFuncDef
         U asin
0003f018 T asphag
00004b9c r asphagArg0
00004b64 r asphagArgs
0008a5f4 t asphagCallFunc
0003efe8 T asphagFP
00004b10 r asphagFuncDef
0003ef00 T aspmem
00004bac r aspmemArg0
00004bb4 r aspmemArg1
00004b6c r aspmemArgs
0008a590 t aspmemCallFunc
0003ee64 T aspmemFP
00004b28 r aspmemFuncDef
0003ef98 T asprules
00004ba4 r asprulesArg0
00004b68 r asprulesArgs
0008a5c4 t asprulesCallFunc
0003ef68 T asprulesFP
00004b1c r asprulesFuncDef
0003f098 T aspuag
00004b94 r aspuagArg0
00004b60 r aspuagArgs
0008a624 t aspuagCallFunc
0003f068 T aspuagFP
00004b04 r aspuagFuncDef
0003f178 T astac
00004bbc r astacArg0
00004bc4 r astacArg1
00004bcc r astacArg2
00004b74 r astacArgs
0008a554 t astacCallFunc
0003f390 t astacCallback
00004b34 r astacFuncDef
0003181c t asyncFinish
0000412c B atExitDebug
000f38f0 T atRebootRegister
         U atan
         U atan2
         U atoi
000007ec T autoOnOff_registerRecordDeviceDriver
00086fc8 t bad_tcp_cmd_action
000870b0 t bad_udp_cmd_action
0000000c C beaconAddrList
00000004 C beaconSocket
00000004 C beacon_ctl
00000004 C beacon_startStopEvent
00000460 D biRSET
0001aac0 t biRecordSizeOffset
         U bind
0000029c b bkpt_stack_sem
00000508 D boHIGHlimit
00000500 D boHIGHprecision
000004b4 D boRSET
0001be4c t boRecordSizeOffset
00001154 d bo_channels
         U bootStringToStruct
000ca570 t bucketAddItem
000ca6fc T bucketAddItemPointerId
000ca6bc T bucketAddItemStringId
000ca73c T bucketAddItemUnsignedId
000ca818 T bucketCreate
000ca77c T bucketFree
00002bc8 b bucketID$9207
000ca2dc t bucketLookupAndRemoveItem
000ca500 T bucketLookupAndRemoveItemPointerId
000ca4c8 T bucketLookupAndRemoveItemStringId
000ca538 T bucketLookupAndRemoveItemUnsignedId
000ca16c t bucketLookupItem
000ca26c T bucketLookupItemPointerId
000ca234 T bucketLookupItemStringId
000ca2a4 T bucketLookupItemUnsignedId
000c9e2c t bucketPointerCompare
000c9eb0 t bucketPointerHash
000ca428 T bucketRemoveItemPointerId
000ca3d8 T bucketRemoveItemStringId
000ca478 T bucketRemoveItemUnsignedId
000c9f20 T bucketShow
000ca0b0 t bucketStringCompare
000c9edc t bucketStringHash
000c9de8 t bucketUnsignedCompare
000c9e84 t bucketUnsignedHash
00002dec r bus
00002bec B caClientCallbackThreadId
00002be4 B caClientContextId
00002be8 b caClientContextIdOnce
0000023c b caInitializing
00090e44 T caNetConvert
000c07b4 T caRepeaterThread
0008fe08 T ca_add_exception_event
0008fb04 T ca_add_fd_registration
0008f66c T ca_add_masked_array_event
00099a18 T ca_array_get
00099e10 T ca_array_get_callback
00098c58 T ca_array_put
0009967c T ca_array_put_callback
0008f250 T ca_attach_context
0008f9bc T ca_beacon_anomaly_count
00097e50 T ca_beacon_period
00000002 C ca_beacon_port
00090234 T ca_build_and_connect
000988c8 T ca_change_connection_event
0008f3c8 T ca_channel_status
0009046c T ca_clear_channel
0008f640 T ca_clear_event
00094218 T ca_clear_subscription
000902f8 T ca_client_exit_handler
0008f934 T ca_client_status
0008f6a8 T ca_context_create
0008f2f0 T ca_context_destroy
0008f398 T ca_context_status
0008fea4 T ca_create_channel
00098538 T ca_create_subscription
0008f174 T ca_current_context
0008f20c T ca_detach_context
00090ed8 T ca_dump_dbr
00098268 T ca_element_count
0008f134 T ca_evid_to_chid
00098488 T ca_field_type
00090394 T ca_flush_io
00098bb4 T ca_get_host_name
0008fa1c T ca_get_ioc_connection_count
00098b30 T ca_host_name
00090294 T ca_init_client_context
0008f13c T ca_message
00001f08 D ca_message_text
0008f124 T ca_modify_host_name
0008f12c T ca_modify_user_name
00097fc0 T ca_name
0008fdb4 T ca_pend
0008fcd0 T ca_pend_event
0008fbf0 T ca_pend_io
00090348 T ca_preemtive_callback_is_enabled
00098a38 T ca_puser
000980f4 T ca_read_access
000983c8 T ca_receive_watchdog_delay
00099160 T ca_replace_access_rights_event
0008fa7c T ca_replace_printf_handler
000901f8 T ca_search_and_connect
00097f10 T ca_search_attempts
0008f1c0 T ca_self_test
00000002 C ca_server_port
00098ab4 T ca_set_puser
0008f60c T ca_signal
0008f420 T ca_signal_formated
0008f5cc T ca_signal_with_file_and_lineno
000981a4 T ca_state
0008f368 T ca_task_exit
0008f828 T ca_task_initialize
00092fa0 T ca_test_event
0008fba0 T ca_test_io
00000002 C ca_udp_port
00098318 T ca_v42_ok
0008f168 T ca_version
00098044 T ca_write_access
00064830 T cacAttachClientCtx
00002bd0 b cacChannelIdOnce
0008ef8c T cacChannelSetup
000937a4 T cacExitHandler
00005a18 R cacNillBytes
00097a64 T cacNoopAccesRightsHandler
00002bf8 b cacOnce
000936a4 T cacOnceFunc
000cb3a0 T calcArgUsage
000ca9d8 T calcErrorStr
000caa00 T calcExprDump
000cb4f0 T calcPerform
00000518 D calcRSET
0001d470 t calcRecordSizeOffset
000005c0 D calcoutODLYlimit
000005b8 D calcoutODLYprecision
0000056c D calcoutRSET
00000004 C calcoutRecDebug
0001f9ec t calcoutRecordSizeOffset
00054f84 t callDone
0005eb14 T callbackCancelDelayed
0005f3f8 T callbackCleanup
0005ef18 T callbackInit
00000b0c b callbackIsInit
0005f568 T callbackParallelThreads
0000524c r callbackParallelThreadsArg0
00005254 r callbackParallelThreadsArg1
0000508c r callbackParallelThreadsArgs
0008c2f8 t callbackParallelThreadsCallFunc
00001cf0 D callbackParallelThreadsDefault
00004f74 r callbackParallelThreadsFuncDef
00000ab8 b callbackQueue
00001cf8 d callbackQueueSize
0005eccc T callbackRequest
0005eb50 T callbackRequestDelayed
0005eecc T callbackRequestProcessCallback
0005ebf0 T callbackRequestProcessCallbackDelayed
0005eafc T callbackSetProcess
0005f508 T callbackSetQueueSize
00005244 r callbackSetQueueSizeArg0
00005088 r callbackSetQueueSizeArgs
0008c32c t callbackSetQueueSizeCallFunc
00004f68 r callbackSetQueueSizeFuncDef
0005f760 T callbackStop
0005f254 t callbackTask
00001cec D callbackThreadsDefault
         U calloc
000d99f4 T callocMustSucceed
000870fc T camessage
00083550 T camsgtask
00000708 b canceledEvent
000d97cc T cantProceed
00084c40 t casAccessRightsCB
0007fc7c T casAttachThreadToClient
0008349c T casClientInitiatingCurrentThread
000849b8 t casCreateChannel
0007fa00 T casExpandRecvBuffer
0007fb70 T casExpandSendBuffer
00000004 C casIgnoreAddrs
0000000c C casIntfAddrList
0000000c C casMCastAddrList
0007f8f4 T casStatsFetch
0008d47c T cas_commit_msg
0008dc94 T cas_copy_in_header
0008d8b4 T cas_send_bs_msg
0008d66c T cas_send_dg_msg
0008d2e0 T cas_set_header_cid
0008d58c T cas_set_header_count
000811d4 T casr
00004acc r casrArg0
00004ac8 r casrArgs
0008a394 t casrCallFunc
00004abc r casrFuncDef
00089ae8 T cast_server
00000004 C castcp_ctl
00000004 C castcp_startStopEvent
00000004 C casudp_ctl
00000004 C casudp_startStopEvent
00000b04 b cbCtl
         U ceil
000002b4 b chFilterFreeList
0003e454 t channelRegisterPost
0003dedc t channelRegisterPre
0003e064 t channelRegisterPre
0003ea80 t channelRegisterPre
0006a13c t channel_close
00069c78 t channel_open
00069d24 t channel_register_post
00069ccc t channel_register_pre
0003df44 t channel_report
0003e104 t channel_report
0003e5cc t channel_report
0003eb20 t channel_report
00069d7c t channel_report
00007dac r charLookupTable
         U chdir
00007670 r chdirArg0
00007610 r chdirArgs
000d5140 t chdirCallFunc
000074f4 r chdirFuncDef
0001ea6c t checkLinks
0001f974 t checkLinksCallback
00007458 t check_connected
000097a4 t check_pending
00069dcc T chfPluginEnumString
00069e24 T chfPluginRegister
00002940 r chf_alloc
00048460 t chf_boolean
0000290c r chf_callbacks
00002938 r chf_config
000482d0 t chf_double
00047ef8 t chf_end_array
00048054 t chf_end_map
000475cc t chf_free
000483a0 t chf_integer
00047d04 t chf_malloc
00048e04 t chf_map_key
00048520 t chf_null
00048dd0 t chf_realloc
00047fb4 t chf_start_array
00048160 t chf_start_map
00048200 t chf_string
000477d8 t chf_value
000862e4 t claim_ciu_action
00083e00 t claim_ciu_reply
0008984c t clean_addrq
00087994 t clear_channel_reply
00024310 t clear_histogram
0000000c C clientQ
00000004 C clientQlock
0000000c C clientQudp
00002c10 b client_list
00086950 t client_name_action
         U clock_gettime
         U clock_settime
         U close
00007494 r commentArg0
000026cc d commentArgs
000d1e68 t commentCallFunc
00007440 r commentFuncDef
000208b4 t compare
00007404 t completion_failure
00007420 t completion_timeout
000005d0 D compressRSET
00021500 t compressRecordSizeOffset
000cb448 t cond_search
00090be4 T configureChannelAccessAddressList
         U connect
00040e3c t connectCallback
00062d38 t connectionCallback
00015684 t convert
0002bebc t convert
0002d30c t convert
0004c82c t copyNoConvert
0008d00c T coreRelease
0008d204 t coreReleaseCallFunc
00005418 r coreReleaseFuncDef
         U cos
         U cosh
00080a80 t countChanListBytes
000d6c1c t cpy2val
000d6d60 t create
000d9de8 t createExitPvt
000e7bd0 t createFunction
0000cae8 T createOrAttachPvSystem
00080308 T create_client
000807d4 T create_tcp_client
000cc210 T cvtBitsToUlong
000cc7a0 T cvtCharToString
0006fa30 t cvtDecimalOrHexToShort
000ccc90 T cvtDoubleToCompactString
000cc884 T cvtDoubleToExpString
000cc968 T cvtDoubleToString
000642bc T cvtEngToRawBpt
000ccfec T cvtFloatToCompactString
000cc8ec T cvtFloatToExpString
000ccda8 T cvtFloatToString
000cc398 T cvtLongToHexString
000cc24c T cvtLongToOctalString
000cc4f8 T cvtLongToString
00064544 T cvtRawToEngBpt
000cc64c T cvtShortToString
000cbff4 T cvtUcharToString
000cc228 T cvtUlongToBits
000cc15c T cvtUlongToString
000cc0a8 T cvtUshortToString
00050d94 t cvt_c_c
00050e08 t cvt_c_d
00050e1c t cvt_c_e
00050df4 t cvt_c_f
00050dd4 t cvt_c_l
00050db4 t cvt_c_s
00051be4 t cvt_c_st
00050da4 t cvt_c_uc
00050de4 t cvt_c_ul
00050dc4 t cvt_c_us
000511d4 t cvt_d_c
0005124c t cvt_d_d
0005125c t cvt_d_e
00051928 t cvt_d_f
00051224 t cvt_d_l
000511fc t cvt_d_s
00051970 t cvt_d_st
000511e8 t cvt_d_uc
00051238 t cvt_d_ul
00051210 t cvt_d_us
00011c28 t cvt_dbaddr
00012b6c t cvt_dbaddr
0001756c t cvt_dbaddr
000208e4 t cvt_dbaddr
000241a8 t cvt_dbaddr
00027a80 t cvt_dbaddr
00028750 t cvt_dbaddr
0002bce4 t cvt_dbaddr
0002eacc t cvt_dbaddr
000363bc t cvt_dbaddr
00037210 t cvt_dbaddr
00051650 t cvt_device_st
00051270 t cvt_e_c
000512e4 t cvt_e_d
000512f8 t cvt_e_e
000512d0 t cvt_e_f
000512b0 t cvt_e_l
00051290 t cvt_e_s
0005187c t cvt_e_st_get
00051308 t cvt_e_st_put
00051280 t cvt_e_uc
000512c0 t cvt_e_ul
000512a0 t cvt_e_us
00051124 t cvt_f_c
000511ac t cvt_f_d
000511c0 t cvt_f_e
0005119c t cvt_f_f
00051174 t cvt_f_l
0005114c t cvt_f_s
00051a28 t cvt_f_st
00051138 t cvt_f_uc
00051188 t cvt_f_ul
00051160 t cvt_f_us
00050ff4 t cvt_l_c
00051068 t cvt_l_d
0005107c t cvt_l_e
00051054 t cvt_l_f
00051034 t cvt_l_l
00051014 t cvt_l_s
00051b48 t cvt_l_st
00051004 t cvt_l_uc
00051044 t cvt_l_ul
00051024 t cvt_l_us
00051710 t cvt_menu_st
00050ec4 t cvt_s_c
00050f38 t cvt_s_d
00050f4c t cvt_s_e
00050f24 t cvt_s_f
00050f04 t cvt_s_l
00050ee4 t cvt_s_s
00051b7c t cvt_s_st
00050ed4 t cvt_s_uc
00050f14 t cvt_s_ul
00050ef4 t cvt_s_us
00052024 t cvt_st_c
00051db4 t cvt_st_d
00051370 t cvt_st_device
00051c1c t cvt_st_e
00051eac t cvt_st_f
00051f24 t cvt_st_l
000514e0 t cvt_st_menu
00051fa4 t cvt_st_s
000517d0 t cvt_st_st
00052124 t cvt_st_uc
00051e34 t cvt_st_ul
000520a4 t cvt_st_us
00050e2c t cvt_uc_c
00050ea0 t cvt_uc_d
00050eb4 t cvt_uc_e
00050e8c t cvt_uc_f
00050e6c t cvt_uc_l
00050e4c t cvt_uc_s
00051bb0 t cvt_uc_st
00050e3c t cvt_uc_uc
00050e7c t cvt_uc_ul
00050e5c t cvt_uc_us
0005108c t cvt_ul_c
00051100 t cvt_ul_d
00051114 t cvt_ul_e
000510ec t cvt_ul_f
000510cc t cvt_ul_l
000510ac t cvt_ul_s
00051b14 t cvt_ul_st
0005109c t cvt_ul_uc
000510dc t cvt_ul_ul
000510bc t cvt_ul_us
00050f5c t cvt_us_c
00050fd0 t cvt_us_d
00050fe4 t cvt_us_e
00050fbc t cvt_us_f
00050f9c t cvt_us_l
00050f7c t cvt_us_s
0005133c t cvt_us_st
00050f6c t cvt_us_uc
00050fac t cvt_us_ul
00050f8c t cvt_us_us
000d5254 T date
00007660 r dateArg0
00007608 r dateArgs
000d5354 t dateCallFunc
000074dc r dateFuncDef
00053b04 T dbAddLink
0006f3e4 t dbAddOnePath
0006f4cc T dbAddPath
00074694 T dbAllocBase
00073db0 T dbAllocEntry
0007b3e0 T dbAllocRecord
00045f7c T dbBkpt
00046c50 t dbBkptCont
00046f64 T dbBkptInit
00000b70 B dbBptNotMonotonic
00043254 T dbBufferSize
00061748 T dbCaAddLinkCallback
000634a4 T dbCaCallbackProcess
00000004 C dbCaClientContext
00000b28 b dbCaCtl
00060398 T dbCaGetAlarm
0005fb0c T dbCaGetAlarmLimits
0006004c T dbCaGetAttributes
0005fe9c T dbCaGetControlLimits
0005fcec T dbCaGetGraphicLimits
00061280 T dbCaGetLink
00060200 T dbCaGetLinkDBFtype
0006054c T dbCaGetNelements
0005f974 T dbCaGetPrecision
000608c8 T dbCaGetTimeStamp
000606d8 T dbCaGetUnits
0005f854 T dbCaIsLinkConnected
00061cc8 t dbCaLinkFree
00061974 T dbCaLinkInit
000618bc T dbCaLinkInitIsolated
00060a68 T dbCaPause
00060dbc T dbCaPutLinkCallback
0006168c T dbCaRemoveLink
00060ac4 T dbCaRun
0006122c T dbCaScanFwdLink
00063330 T dbCaShutdown
00061e40 t dbCaTask
0006dfa8 T dbCatString
000485d0 T dbChannelCreate
000478a0 T dbChannelDelete
00049098 T dbChannelExit
000470f8 T dbChannelFilterShow
000002b0 b dbChannelFreeList
00047730 T dbChannelGet
00047c3c T dbChannelGetField
00049004 T dbChannelInit
000475fc T dbChannelMakeArrayCopy
000471cc T dbChannelOpen
00047c0c T dbChannelPut
00047bdc T dbChannelPutField
0004706c T dbChannelRunPostChain
00046fe0 T dbChannelRunPreChain
00047978 T dbChannelShow
00047e48 T dbChannelTest
0008bcb8 T dbChannel_create
0008bbfc T dbChannel_get
0008aa08 T dbChannel_get_count
0008a70c T dbChannel_put
00073e18 T dbCopyEntry
0006b588 T dbCopyEntryContents
00072f34 T dbCopyRecord
000722a4 T dbCreateAlias
00072c54 T dbCreateRecord
0006de68 T dbCvtLinkToConstant
0006dd5c T dbCvtLinkToPvlink
00001d16 D dbDBRnewToDBRold
00001d08 D dbDBRoldToDBFnew
0004331c T dbDSETtoDevSup
00043360 T dbDTYPtoDevSup
00052d38 t dbDbAddLink
000524e8 t dbDbGetAlarm
00052854 t dbDbGetAlarmLimits
00052984 t dbDbGetControlLimits
000524c8 t dbDbGetDBFtype
000524d4 t dbDbGetElements
00052900 t dbDbGetGraphicLimits
000527e4 t dbDbGetPrecision
0005251c t dbDbGetTimeStamp
00052c30 t dbDbGetUnits
00052a08 t dbDbGetValue
00052e20 t dbDbInitLink
000524c0 t dbDbIsLinkConnected
0005269c t dbDbPutValue
00052cd0 t dbDbRemoveLink
000525c4 t dbDbScanFwdLink
00001ca0 D dbDb_lset
00072b08 T dbDeleteAliases
0006ea0c T dbDeleteInfo
00072860 T dbDeleteRecord
0006cd2c T dbDumpBreaktable
000053a0 r dbDumpBreaktableArg1
00005360 r dbDumpBreaktableArgs
0008cd0c t dbDumpBreaktableCallFunc
000052ec r dbDumpBreaktableFuncDef
0006cebc T dbDumpDevice
00005348 r dbDumpDeviceArgs
0008ce28 t dbDumpDeviceCallFunc
000052b0 r dbDumpDeviceFuncDef
0006c0fc T dbDumpDriver
00005350 r dbDumpDriverArgs
0008cdf0 t dbDumpDriverCallFunc
000052bc r dbDumpDriverFuncDef
0006d1d8 T dbDumpField
00005398 r dbDumpFieldArg2
0000533c r dbDumpFieldArgs
0008ce64 t dbDumpFieldCallFunc
000052a4 r dbDumpFieldFuncDef
0006be4c T dbDumpFunction
00005358 r dbDumpFunctionArgs
0008cd80 t dbDumpFunctionCallFunc
000052d4 r dbDumpFunctionFuncDef
0006cb7c T dbDumpMenu
00005390 r dbDumpMenuArg1
0000532c r dbDumpMenuArgs
0008cee4 t dbDumpMenuCallFunc
0000528c r dbDumpMenuFuncDef
0006d918 T dbDumpPath
0000531c r dbDumpPathArgs
0008cf64 t dbDumpPathCallFunc
00005274 r dbDumpPathFuncDef
00073bf0 T dbDumpRecord
00005388 r dbDumpRecordArg2
00005320 r dbDumpRecordArgs
0008cf20 t dbDumpRecordCallFunc
00005280 r dbDumpRecordFuncDef
0006d6b0 T dbDumpRecordType
00005334 r dbDumpRecordTypeArgs
0008cea8 t dbDumpRecordTypeCallFunc
00005298 r dbDumpRecordTypeFuncDef
0006bfa4 T dbDumpRegistrar
00005354 r dbDumpRegistrarArgs
0008cdb8 t dbDumpRegistrarCallFunc
000052c8 r dbDumpRegistrarFuncDef
0006bcf4 T dbDumpVariable
0000535c r dbDumpVariableArgs
0008cd48 t dbDumpVariableCallFunc
000052e0 r dbDumpVariableFuncDef
000521a4 T dbExtractArrayFromBuf
00052308 T dbExtractArrayFromRec
000018e0 D dbFastGetConvertRoutine
00001ac0 D dbFastPutConvertRoutine
0006e644 T dbFindBrkTable
0006e5b4 T dbFindDriver
0007046c T dbFindField
00070090 T dbFindFieldPart
0006c2ec T dbFindFieldType
00047174 T dbFindFilter
0006c3a4 T dbFindInfo
0006e5fc T dbFindMenu
0007220c T dbFindRecord
00072120 T dbFindRecordPart
0006e68c T dbFindRecordType
0006dd0c T dbFinishEntry
0006dcd8 T dbFirstField
0006b970 T dbFirstInfo
0006b7d0 T dbFirstRecord
0006b61c T dbFirstRecordType
0006b958 T dbFoundField
00073e94 T dbFreeBase
00073d50 T dbFreeEntry
0006f928 T dbFreeLinkContents
0006eabc T dbFreePath
0007b364 T dbFreeRecord
000729f0 T dbFreeRecords
00043394 T dbGet
00053194 T dbGetAlarm
00053338 T dbGetAlarmLimits
00070304 T dbGetAttributePart
00053450 T dbGetControlLimits
00001520 D dbGetConvertRoutine
0006b788 T dbGetDefault
0006e14c T dbGetDeviceMenu
00044018 T dbGetField
0007a274 T dbGetFieldAddress
00043234 T dbGetFieldIndex
0006b770 T dbGetFieldName
0006ed1c T dbGetFieldType
0006ba60 T dbGetFieldTypeString
000533c4 T dbGetGraphicLimits
0006c478 T dbGetInfo
0006b9f8 T dbGetInfoName
0006ba48 T dbGetInfoPointer
0006ba10 T dbGetInfoString
000534dc T dbGetLink
0005374c T dbGetLinkDBFtype
0006db10 T dbGetLinkField
0005386c T dbGetLinkLS
0006da70 T dbGetLinkType
0006e4b8 T dbGetMenuChoices
0007a440 T dbGetMenuIndex
0006e294 T dbGetMenuIndexFromString
0006e384 T dbGetMenuStringFromIndex
0006b894 T dbGetNAliases
0006b6ec T dbGetNFields
0006baa8 T dbGetNLinks
0006e43c T dbGetNMenuChoices
0006b6e0 T dbGetNRecordTypes
0006b87c T dbGetNRecords
000536a8 T dbGetNelements
000532ac T dbGetPrecision
0006b7a0 T dbGetPrompt
0006b7b8 T dbGetPromptGroup
0006e714 T dbGetPromptGroupKeyFromName
0006b5cc T dbGetPromptGroupNameFromKey
0006eb8c T dbGetRange
00070438 T dbGetRecordAttribute
0006b8ac T dbGetRecordName
0006b6d4 T dbGetRecordTypeName
00070974 T dbGetRelatedField
000431fc T dbGetRset
0006fb0c T dbGetString
0007ad44 T dbGetStringNum
00053108 T dbGetTimeStamp
00053220 T dbGetUnits
0007a204 T dbInitDevSup
0006f8d4 T dbInitEntry
00053c6c T dbInitLink
0006b8f8 T dbInvisibleRecord
0008bd34 T dbIocRegister
0006b93c T dbIsAlias
0007b058 T dbIsDefaultValue
000539ac T dbIsLinkConnected
0007a318 T dbIsMacroOk
00043218 T dbIsValueField
0006b920 T dbIsVisibleRecord
0004416c T dbLoadDatabase
0000510c r dbLoadDatabaseArg0
00005114 r dbLoadDatabaseArg1
0000511c r dbLoadDatabaseArg2
00004fec r dbLoadDatabaseArgs
0008c8a8 t dbLoadDatabaseCallFunc
00004e18 r dbLoadDatabaseFuncDef
0005253c T dbLoadLink
00052eec T dbLoadLinkLS
000440e0 T dbLoadRecords
00005124 r dbLoadRecordsArg0
0000512c r dbLoadRecordsArg1
00004ff8 r dbLoadRecordsArgs
0008c874 t dbLoadRecordsCallFunc
00004e24 r dbLoadRecordsFuncDef
00000290 B dbLoadRecordsHook
0007c9f4 T dbLoadTemplate
000053cc r dbLoadTemplateArg0
000053d4 r dbLoadTemplateArg1
000053c4 r dbLoadTemplateArgs
0008cfd8 t dbLoadTemplateCallFunc
000053b8 r dbLoadTemplateFuncDef
00042cb4 T dbLockCleanupRecords
00041c14 T dbLockGetLockId
00042aa0 T dbLockInitRecords
00000250 b dbLockIsInitialized
000411e0 T dbLockSetAddrTrace
00041b74 T dbLockSetGblLock
00042338 T dbLockSetGblUnlock
00041cf8 T dbLockSetMerge
00041f60 T dbLockSetRecordLock
00042620 T dbLockSetSplit
000411f0 T dbLockShowLocked
0000521c r dbLockShowLockedArg0
00005074 r dbLockShowLockedArgs
0008c45c t dbLockShowLockedCallFunc
00004f20 r dbLockShowLockedFuncDef
000441b4 T dbNameToAddr
0006dba8 T dbNextField
0006b9ac T dbNextInfo
0006b844 T dbNextRecord
0006b674 T dbNextRecordType
0005454c T dbNotifyAdd
00054ba8 T dbNotifyCancel
00054900 T dbNotifyCompletion
00053e5c T dbNotifyDump
0008c530 t dbNotifyDumpCallFunc
00004ef0 r dbNotifyDumpFuncDef
00074b5c t dbOpenFile
0006f758 T dbPath
00045bdc T dbPrint
0004441c T dbProcess
00055564 T dbProcessNotify
00055d78 T dbProcessNotifyExit
00055cc0 T dbProcessNotifyInit
00044c94 T dbPut
000051e4 r dbPutAttrArg0
000051ec r dbPutAttrArg1
000051f4 r dbPutAttrArg2
00005058 r dbPutAttrArgs
0008c4f4 t dbPutAttrCallFunc
00004efc r dbPutAttrFuncDef
00044970 T dbPutAttribute
00001700 D dbPutConvertRoutine
000450ec T dbPutField
0006e820 T dbPutInfo
0006ba28 T dbPutInfoPointer
0006e774 T dbPutInfoString
00053030 T dbPutLink
000537d4 T dbPutLinkLS
0007a320 T dbPutMenuIndex
00071f2c T dbPutRecordAttribute
00044ac4 T dbPutSpecial
00070d1c T dbPutString
0007a514 T dbPutStringNum
00079dac T dbPvdAdd
00079c50 T dbPvdDelete
00079824 T dbPvdDump
000053a8 r dbPvdDumpArg1
00005368 r dbPvdDumpArgs
0008ccd0 t dbPvdDumpCallFunc
000052f8 r dbPvdDumpFuncDef
00079fcc T dbPvdFind
00079a6c T dbPvdFreeMem
000017bc B dbPvdHashTableSize
0007a12c T dbPvdInitPvt
000797a0 T dbPvdTableSize
000053b0 r dbPvdTableSizeArg0
00005370 r dbPvdTableSizeArgs
0008cca0 t dbPvdTableSizeCallFunc
00005304 r dbPvdTableSizeFuncDef
00000b74 B dbQuietMacroWarnings
00078fc8 t dbReadCOM
00079768 T dbReadDatabase
00079728 T dbReadDatabaseFP
00076b98 t dbRecordBody
00075950 t dbRecordHead
0007a2d4 T dbRecordName
00000b6c B dbRecordsOnceOnly
00076c3c t dbRecordtypeBody
00075318 t dbRecordtypeFieldItem
00047430 T dbRegisterFilter
0006b4d8 T dbRegisterServer
00053a34 T dbRemoveLink
00072510 T dbRenameRecord
0007052c T dbReportDeviceConfig
00005374 r dbReportDeviceConfigArgs
0008cc48 t dbReportDeviceConfigCallFunc
00005310 r dbReportDeviceConfigFuncDef
00052fc0 T dbScanFwdLink
00042e1c T dbScanLock
000448f8 T dbScanPassive
000419a4 T dbScanUnlock
0006b394 T dbServerClient
00064d68 T dbServiceIOInit
000431f0 T dbSpcAsRegisterCallback
0000525c r dbStateArgName
0006b0f0 T dbStateClear
0000509c r dbStateClearArgs
0008c238 t dbStateClearCallFunc
00004f98 r dbStateClearFuncDef
0006b2b4 T dbStateCreate
00005094 r dbStateCreateArgs
0008c2c8 t dbStateCreateCallFunc
00004f80 r dbStateCreateFuncDef
0006b210 T dbStateFind
0006af14 T dbStateGet
0006b180 T dbStateSet
00005098 r dbStateSetArgs
0008c280 t dbStateSetCallFunc
00004f8c r dbStateSetFuncDef
0006afb0 T dbStateShow
0006b084 T dbStateShowAll
0000526c r dbStateShowAllArg0
000050a8 r dbStateShowAllArgs
0008c1b0 t dbStateShowAllCallFunc
00004fb0 r dbStateShowAllFuncDef
00005264 r dbStateShowArg1
000050a0 r dbStateShowArgs
0008c1e0 t dbStateShowCallFunc
00004fa4 r dbStateShowFuncDef
00000b64 B dbStaticDebug
0008cacc T dbStaticIocRegister
00067dc4 T dbSubscriptionEventCallback
00001ed4 D dbTemplateMaxVars
00001ee4 D dbThreadRealtimeLock
000dc094 T dbTranslateEscape
00043240 T dbValueSize
000751d8 t dbVariable
0006eee4 T dbVerify
0006b8d0 T dbVisibleRecord
00073404 T dbWriteBreaktable
0006bac4 T dbWriteBreaktableFP
000734fc T dbWriteDevice
0006c190 T dbWriteDeviceFP
00073480 T dbWriteDriver
0006c038 T dbWriteDriverFP
0006bd88 T dbWriteFunctionFP
00073604 T dbWriteMenu
0006c9ac T dbWriteMenuFP
00073cac T dbWriteRecord
00073690 T dbWriteRecordFP
00073578 T dbWriteRecordType
0006c4d8 T dbWriteRecordTypeFP
0006bee0 T dbWriteRegistrarFP
0006bc2c T dbWriteVariableFP
00059f34 T db_add_event
000589ac T db_add_extra_labor_event
00059b88 T db_cancel_event
0005a244 T db_close_events
0005965c T db_create_event_log
0005960c T db_create_read_log
0005883c T db_delete_field_log
00058f04 T db_event_change_priority
00059ac8 T db_event_disable
00059e74 T db_event_enable
00058a50 T db_event_flow_ctrl_mode_off
00058aec T db_event_flow_ctrl_mode_on
0005abe8 T db_event_list
000017d4 b db_file_name
000599ac T db_flush_extra_labor_event
0005a3c4 T db_init_events
000597f8 T db_post_events
00058e28 T db_post_extra_labor
00059750 T db_post_single_event
0008a8dc T db_put_process
00058b88 t db_queue_event_log
00058f34 T db_start_events
0005afcc T dba
00005134 r dbaArg0
00005000 r dbaArgs
0008c844 t dbaCallFunc
00004e30 r dbaFuncDef
00045728 T dbap
000050dc r dbapArg0
00004fd4 r dbapArgs
0008c97c t dbapCallFunc
00004de8 r dbapFuncDef
00046898 T dbb
000050ac r dbbArg0
00004fbc r dbbArgs
0008ca9c t dbbCallFunc
00004da0 r dbbFuncDef
000464c0 T dbc
000050bc r dbcArg0
00004fc4 r dbcArgs
0008ca3c t dbcCallFunc
00004db8 r dbcFuncDef
0006350c T dbcaStats
00000b30 b dbca_chan_count
0006374c T dbcar
000050ec r dbcarArg0
000050f4 r dbcarArg1
00004fdc r dbcarArgs
0008c918 t dbcarCallFunc
00004e00 r dbcarFuncDef
000002b8 b dbchStringFreeList
000465fc T dbd
000050b4 r dbdArg0
00004fc0 r dbdArgs
0008ca6c t dbdCallFunc
00004dac r dbdFuncDef
0005a670 T dbel
000050fc r dbelArg0
00005104 r dbelArg1
00004fe4 r dbelArgs
0008c8e4 t dbelCallFunc
00004e0c r dbelFuncDef
000006fc b dbevEventQueueFreeList
00000700 b dbevEventSubscriptionFreeList
000006f8 b dbevEventUserFreeList
00000704 b dbevFieldLogFreeList
00002a38 r dbf
00001ffc D dbf_text
00005696 R dbf_text_dim
00002020 D dbf_text_invalid
0005cca0 T dbgf
00005164 r dbgfArg0
00005018 r dbgfArgs
0008c750 t dbgfCallFunc
00004e6c r dbgfFuncDef
0005d5c0 T dbgrep
0000515c r dbgrepArg0
00005014 r dbgrepArgs
0008c780 t dbgrepCallFunc
00004e60 r dbgrepFuncDef
0005ac14 T dbhcr
0008c5f4 t dbhcrCallFunc
00004ec0 r dbhcrFuncDef
0005aca8 T dbior
000051ac r dbiorArg0
000051b4 r dbiorArg1
0000503c r dbiorArgs
0008c620 t dbiorCallFunc
00004eb4 r dbiorFuncDef
0005dc3c T dbl
0000513c r dblArg0
00005144 r dblArg1
00005004 r dblArgs
0008c810 t dblCallFunc
00004e3c r dblFuncDef
0005d7c0 T dbla
00005154 r dblaArg0
00005010 r dblaArgs
0008c7b0 t dblaCallFunc
00004e54 r dblaFuncDef
000414f0 T dblsr
0000520c r dblsrArg0
00005214 r dblsrArg1
0000506c r dblsrArgs
0008c48c t dblsrCallFunc
00004f14 r dblsrFuncDef
00004080 B dbmfDebug
000cd6e0 T dbmfFree
000cd554 T dbmfFreeChunks
000cd86c T dbmfInit
000cd97c T dbmfMalloc
00000030 C dbmfPvt
000cd364 T dbmfShow
000cdc64 T dbmfStrdup
0003e078 t dbndInitialize
0005da24 T dbnr
0000514c r dbnrArg0
0000500c r dbnrArgs
0008c7e0 t dbnrCallFunc
00004e48 r dbnrFuncDef
00045e90 T dbp
000050cc r dbpArg0
000050d4 r dbpArg1
00004fcc r dbpArgs
0008c9ac t dbpCallFunc
00004ddc r dbpFuncDef
0005ce24 T dbpf
0000516c r dbpfArg0
00005174 r dbpfArg1
0000501c r dbpfArgs
0008c71c t dbpfCallFunc
00004e78 r dbpfFuncDef
0005cf44 T dbpr
0000517c r dbprArg0
00005184 r dbprArg1
00005024 r dbprArgs
0008c6e8 t dbprCallFunc
00004e84 r dbprFuncDef
0005b250 t dbpr_insert_msg
0005b384 t dbpr_msgOut
0005b1c8 t dbpr_msg_flush
00045848 T dbprc
00002a0c r dbr
00005510 R dbr_size
00002024 D dbr_text
00005698 R dbr_text_dim
000020c0 D dbr_text_invalid
000055ac R dbr_value_class
00005648 R dbr_value_offset
0000555e R dbr_value_size
00000b48 b dbs
0004638c T dbs
000050c4 r dbsArg0
00004fc8 r dbsArgs
0008ca0c t dbsCallFunc
00004dc4 r dbsFuncDef
0006b43c T dbsr
000050e4 r dbsrArg0
00004fd8 r dbsrArgs
0008c94c t dbsrCallFunc
00004df4 r dbsrFuncDef
00045948 T dbstat
0008c9e0 t dbstatCallFunc
00004dd0 r dbstatFuncDef
0005c7dc T dbtgf
00005194 r dbtgfArg0
00005030 r dbtgfArgs
0008c688 t dbtgfCallFunc
00004e9c r dbtgfFuncDef
0008cf9c T dbtoolsIocRegister
0005c384 T dbtpf
0000519c r dbtpfArg0
000051a4 r dbtpfArg1
00005034 r dbtpfArgs
0008c654 t dbtpfCallFunc
00004ea8 r dbtpfFuncDef
000540e8 T dbtpn
000051d4 r dbtpnArg0
000051dc r dbtpnArg1
00005050 r dbtpnArgs
0008c55c t dbtpnCallFunc
00004ee4 r dbtpnFuncDef
0005d490 T dbtr
0000518c r dbtrArg0
0000502c r dbtrArgs
0008c6b8 t dbtrCallFunc
00004e90 r dbtrFuncDef
00004a38 b defHook$2259
00010580 t delProg
0003da58 t del_lsi
0003d4d8 t del_lso
0003d534 t del_printf
00038828 t del_record
00038a84 t del_record
0003aa04 t del_record
0003afe8 t del_record
0003b5cc t del_record
0003bbb0 t del_record
0003c194 t del_record
0003c794 t del_record
0003da7c t del_stringin
0003d590 t del_stringout
000d70f4 t delete
00057064 t deleteFromList
00004148 r delta
0007fd10 t destroyAllChannels
000da258 t destroyExitPvt
00080074 T destroy_client
000806a8 T destroy_tcp_client
00000d1c D devAaiSoft
00000d38 D devAaoSoft
000010c0 D devAiGeneralTime
00000d54 D devAiSoft
00001164 D devAiSoftCallback
00000d74 D devAiSoftRaw
00000d94 D devAoSoft
00001240 D devAoSoftCallback
00000db4 D devAoSoftRaw
00000e18 d devBiDbState
00000dd4 D devBiSoft
0000118c D devBiSoftCallback
00000df0 D devBiSoftRaw
00000e74 d devBoDbState
000010e0 D devBoGeneralTime
00000e30 D devBoSoft
00001260 D devBoSoftCallback
00000e4c D devBoSoftRaw
00000e8c D devCalcoutSoft
0000127c D devCalcoutSoftCallback
00000ea8 D devEventSoft
0007a4c0 T devExtend
00000ec4 D devHistogramSoft
000010fc D devLiGeneralTime
00000ee4 D devLiSoft
000011b0 D devLiSoftCallback
00000f00 D devLoSoft
00001298 D devLoSoftCallback
00001408 D devLsiEnviron
00000f1c D devLsiSoft
00000f38 D devLsoSoft
000012b4 D devLsoSoftCallback
0000137c D devLsoStdio
00000f54 D devMbbiDirectSoft
000011d4 D devMbbiDirectSoftCallback
00000f70 D devMbbiDirectSoftRaw
00000f8c D devMbbiSoft
000011f8 D devMbbiSoftCallback
00000fa8 D devMbbiSoftRaw
00000fc4 D devMbboDirectSoft
000012ec D devMbboDirectSoftCallback
00000fe0 D devMbboDirectSoftRaw
00000ffc D devMbboSoft
000012d0 D devMbboSoftCallback
00001018 D devMbboSoftRaw
00001034 D devPrintfSoft
00001308 D devPrintfSoftCallback
00001398 D devPrintfStdio
00001050 D devSASoft
00001438 d devSiEnviron
00001118 D devSiGeneralTime
0000106c D devSiSoft
0000121c D devSiSoftCallback
00001088 D devSoSoft
00001324 D devSoSoftCallback
000013f0 d devSoStdio
00001ecc D devSoft_DSXT
00001340 D devTimestampAI
00001360 D devTimestampSI
000010a4 D devWfSoft
00000120 D devXxxSoft
00000090 r deviceSupportNames
00000108 b devsl
00000620 D dfanoutRSET
000225ac t dfanoutRecordSizeOffset
         U difftime
000072e8 r digit_to_ascii
00005c90 r disconnectGovernorPeriod
0007dca8 t doCloseLinks
0007dbf4 t doFreeRecord
0007e6ec t doInitRecord0
0007d8d8 t doInitRecord1
0007ecc4 t doRecordPini
0007e55c t doResolveLinks
0007a1fc t do_nothing
000001f4 b done
00004a48 b done
000001fc b done$1753
00004a20 b done$5545
0003ac2c t doneCallback
0003b210 t doneCallback
0003b7f4 t doneCallback
0003bdd8 t doneCallback
0003c3bc t doneCallback
0003c9c0 t doneCallback
00054270 t doneCallback
0008e144 t doneCallback
00001430 d dsxtLsiEnviron
000013e8 d dsxtLsoStdio
000013e0 d dsxtPrintfStdio
00001428 d dsxtSiEnviron
000013b8 d dsxtSoStdio
00001184 d dsxtSoftCallback
000011a8 d dsxtSoftCallback
000011cc d dsxtSoftCallback
000011f0 d dsxtSoftCallback
00001214 d dsxtSoftCallback
00001238 d dsxtSoftCallback
000e9488 t dumpInfo
00000bc0 b duplicate
00007668 r echoArg0
0000760c r echoArgs
000d51b0 t echoCallFunc
000074e8 r echoFuncDef
000cdcd4 T ellAdd
000cdd1c T ellConcat
000cdd94 T ellDelete
000cddfc T ellExtract
000ce064 T ellFind
000ce0bc T ellFree2
000cdea4 T ellGet
000cdf34 T ellInsert
000ce008 T ellNStep
000cdf9c T ellNth
000cdeec T ellPop
000ce130 T ellVerify
000cec78 T eltc
000076a0 r eltcArg0
00007628 r eltcArgs
000d4ef4 t eltcCallFunc
0000756c r eltcFuncDef
000ce4f8 T envGetBoolConfigParam
000ce464 T envGetConfigParam
000ce2d0 T envGetConfigParamPtr
000ce874 T envGetDoubleConfigParam
000ce7a0 T envGetInetAddrConfigParam
000ce654 T envGetInetPortConfigParam
000ce580 T envGetLongConfigParam
000ce334 T envPrtConfigParam
         U envShow
000020fc D env_param_list
000e5c58 T epicsAssert
000d9f20 T epicsAtExit3
000d9e34 t epicsAtExitPvt
000da040 T epicsAtThreadExit
000e9828 T epicsBackTrace
000d9b10 T epicsConvertDoubleToFloat
00004160 b epicsDeadlockDetectMutexInit
000dff30 T epicsDeadlockDetectMutexInitFunc
000e6350 T epicsEnvSet
00007678 r epicsEnvSetArg0
00007680 r epicsEnvSetArg1
00007614 r epicsEnvSetArgs
000d5034 t epicsEnvSetCallFunc
0000750c r epicsEnvSetFuncDef
000e6294 T epicsEnvShow
00007688 r epicsEnvShowArg0
0000761c r epicsEnvShowArgs
000d4fac t epicsEnvShowCallFunc
00007530 r epicsEnvShowFuncDef
000e8764 T epicsEventCreate
000e8738 T epicsEventDestroy
000e0ef4 T epicsEventMustCreate
000e0e94 T epicsEventMustTrigger
000e0e30 T epicsEventMustWait
000e8538 T epicsEventShow
000e8564 T epicsEventTryWait
000e85cc T epicsEventWaitWithTimeout
000da45c T epicsExit
000da348 T epicsExitCallAtExits
000da110 t epicsExitCallAtExitsPvt
000da2b0 T epicsExitCallAtThreadExits
000d9c80 t epicsExitInit
000d9c3c T epicsExitLater
000e9830 T epicsFindAddr
000e9848 T epicsFindAddrGetFeatures
000e5dcc T epicsFindSymbol
000e6afc T epicsGetStderr
000e6dd4 T epicsGetStdin
000e6b54 T epicsGetStdout
000e6a00 T epicsGetThreadStderr
000e6aa4 T epicsGetThreadStdin
000e6a4c T epicsGetThreadStdout
000041a0 B epicsINF
000e6054 T epicsInterruptContextMessage
000e6098 T epicsInterruptIsInterruptContext
000e60f0 T epicsInterruptLock
000e60c4 T epicsInterruptUnlock
000e5ea0 T epicsLoadError
000e5efc T epicsLoadLibrary
000dbe88 T epicsMemHash
000e0580 T epicsMutexDestroy
0000417c b epicsMutexGlobalLock
000dfff4 T epicsMutexLock
000e8508 T epicsMutexOsdCreate
000e84dc T epicsMutexOsdDestroy
000e8448 T epicsMutexOsdShow
000e8474 T epicsMutexOsdTryLock
000e0718 T epicsMutexOsiCreate
000e0b2c T epicsMutexOsiMustCreate
000e02f4 T epicsMutexShow
000e03cc T epicsMutexShowAll
000076e8 r epicsMutexShowAllArg0
000076f0 r epicsMutexShowAllArg1
0000764c r epicsMutexShowAllArgs
000d4bb0 t epicsMutexShowAllCallFunc
000075cc r epicsMutexShowAllFuncDef
000e01cc T epicsMutexTryLock
000e0294 T epicsMutexUnlock
0000419c B epicsNAN
000d5008 t epicsParamShowCallFunc
00007518 r epicsParamShowFuncDef
000da7b8 T epicsParseDouble
000daed8 T epicsParseFloat
000dadec T epicsParseInt16
000dada0 T epicsParseInt32
000db3f8 T epicsParseInt64
000dae64 T epicsParseInt8
000db258 T epicsParseLLong
000dac14 T epicsParseLong
000dab24 T epicsParseUInt16
000daad8 T epicsParseUInt32
000db204 T epicsParseUInt64
000dab9c T epicsParseUInt8
000db064 T epicsParseULLong
000da94c T epicsParseULong
000ce400 T epicsPrtEnvParams
000d4fdc t epicsPrtEnvParamsCallFunc
00007524 r epicsPrtEnvParamsFuncDef
000e6544 T epicsReadline
000e6690 T epicsReadlineBegin
000e64e4 T epicsReadlineEnd
000e9d50 T epicsRingPointerCreate
000e9cd0 T epicsRingPointerDelete
000e9aa0 T epicsRingPointerFlush
000e9a0c T epicsRingPointerGetFree
000e9850 T epicsRingPointerGetSize
000e997c T epicsRingPointerGetUsed
000e98f8 T epicsRingPointerIsEmpty
000e985c T epicsRingPointerIsFull
000e9df8 T epicsRingPointerLockedCreate
000e9c04 T epicsRingPointerPop
000e9b14 T epicsRingPointerPush
000e686c T epicsSetThreadStderr
000e693c T epicsSetThreadStdin
000e68d4 T epicsSetThreadStdout
0000407c b epicsSigletonOnceFlag
000e628c T epicsSignalInstallSigAlarmIgnore
000e6284 T epicsSignalInstallSigHupIgnore
000e6288 T epicsSignalInstallSigPipeIgnore
000e6290 T epicsSignalRaiseSigAlarm
000e6e74 T epicsSnprintf
000e5520 T epicsSocketAccept
000e5bf8 T epicsSocketConvertErrnoToString
000e5b84 T epicsSocketConvertErrorToString
000e555c T epicsSocketCreate
000e5494 T epicsSocketDestroy
000e5614 T epicsSocketEnableAddressReuseDuringTimeWaitState
000e5598 T epicsSocketEnableAddressUseForDatagramFanout
000e5b7c T epicsSocketSystemCallInterruptMechanismQuery
000f4d44 T epicsSpinCreate
000f4d18 T epicsSpinDestroy
000f4b94 T epicsSpinLock
000f4d78 T epicsSpinMustCreate
000f4a90 T epicsSpinTryLock
000f49d8 T epicsSpinUnlock
000e95e8 T epicsStackTrace
000e9410 T epicsStackTraceGetFeatures
000e6d48 T epicsStdoutPrintf
000e6bac T epicsStdoutPutchar
000e6cf0 T epicsStdoutPuts
000dbb34 T epicsStrCaseCmp
000dc0fc T epicsStrDup
000dbc50 T epicsStrGlobMatch
000dbdf8 T epicsStrHash
000dbf1c T epicsStrPrintEscaped
000dbbb4 T epicsStrnCaseCmp
000db7b8 T epicsStrnEscapedFromRaw
000dbac4 T epicsStrnEscapedFromRawSize
000db44c T epicsStrnRawFromEscaped
000da4fc T epicsStrtod
000dbd4c T epicsStrtok_r
000dfd0c T epicsThreadCallEntryPoint
000e7a6c T epicsThreadCreate
000e77b8 T epicsThreadExitMain
000e7014 T epicsThreadGetCPUs
000e76ac T epicsThreadGetId
000e7680 T epicsThreadGetIdSelf
000e75d8 T epicsThreadGetName
000e7644 T epicsThreadGetNameSelf
000e78fc T epicsThreadGetPriority
000e7980 T epicsThreadGetPrioritySelf
000e77f0 T epicsThreadGetStackSize
000e6f88 T epicsThreadHighestPriorityLevelBelow
000e8328 T epicsThreadHookAdd
00000004 C epicsThreadHookDefault
000e8218 T epicsThreadHookDelete
00000004 C epicsThreadHookMain
000e7f90 T epicsThreadHooksShow
000e7170 t epicsThreadInit
000e6fc8 T epicsThreadIsEqual
000de750 T epicsThreadIsOkToBlock
000e7858 T epicsThreadIsSuspended
00004a18 b epicsThreadListMutex
000e6fa8 T epicsThreadLowestPriorityLevelAbove
00004154 B epicsThreadMainId
000e7438 T epicsThreadMap
000de5f4 T epicsThreadMustCreate
000e7cb0 T epicsThreadOnce
000de71c t epicsThreadOnceIdInit
00004a14 b epicsThreadOnceMutex
000e7320 T epicsThreadPrivateCreate
000e6fd8 T epicsThreadPrivateDelete
000e6fdc T epicsThreadPrivateGet
000e7078 T epicsThreadPrivateSet
000e6f84 T epicsThreadRealtimeLock
000e79bc T epicsThreadResume
00007700 r epicsThreadResumeArg0
00007658 r epicsThreadResumeArgs
000d49a4 t epicsThreadResumeCallFunc
000075e4 r epicsThreadResumeFuncDef
000de674 T epicsThreadSetOkToBlock
000e7884 T epicsThreadSetPriority
000e73c0 T epicsThreadShow
000e7404 T epicsThreadShowAll
000076d0 r epicsThreadShowAllArg0
00007640 r epicsThreadShowAllArgs
000d4c14 t epicsThreadShowAllCallFunc
000075a8 r epicsThreadShowAllFuncDef
000e76e4 T epicsThreadSleep
000076f8 r epicsThreadSleepArg0
00007654 r epicsThreadSleepArgs
000d4b7c t epicsThreadSleepCallFunc
000075d8 r epicsThreadSleepFuncDef
000e701c T epicsThreadSleepQuantum
000e7a0c T epicsThreadSuspendSelf
000e31cc T epicsTimeAddSeconds
000e2ac0 T epicsTimeDiffInSeconds
000e2a00 T epicsTimeEqual
000e3430 T epicsTimeFromTM
000e3504 T epicsTimeFromTime_t
000e3394 T epicsTimeFromTimespec
000e32f8 T epicsTimeFromTimeval
000e4fc4 T epicsTimeGetCurrent
000e419c T epicsTimeGetCurrentInt
000e5024 T epicsTimeGetEvent
000e41fc T epicsTimeGetEventInt
000e2738 T epicsTimeGreaterThan
000e2680 T epicsTimeGreaterThanEqual
000e28a0 T epicsTimeLessThan
000e27f0 T epicsTimeLessThanEqual
000e2950 T epicsTimeNotEqual
000e4058 T epicsTimeShow
000e3754 T epicsTimeToGMTM
000e3f00 T epicsTimeToStrftime
000e39cc T epicsTimeToTM
000e2cdc T epicsTimeToTime_t
000e2c40 T epicsTimeToTimespec
000e2ba4 T epicsTimeToTimeval
000e89d4 T epicsTime_gmtime
000e8a04 T epicsTime_localtime
000eb3b8 T epicsTimerCancel
000eb520 T epicsTimerGetExpireDelay
000ec3a0 T epicsTimerQueueAllocate
000eb68c T epicsTimerQueueCreateTimer
000eb354 T epicsTimerQueueDestroyTimer
000ebb40 T epicsTimerQueuePassiveCreate
000eb7a4 T epicsTimerQueuePassiveCreateTimer
000eb270 T epicsTimerQueuePassiveDestroy
000eb29c T epicsTimerQueuePassiveDestroyTimer
000eb6e0 T epicsTimerQueuePassiveProcess
000eb2cc T epicsTimerQueuePassiveShow
000eb2fc T epicsTimerQueueRelease
000eb328 T epicsTimerQueueShow
000eb3e8 T epicsTimerShow
000eb384 T epicsTimerStartDelay
000eb614 T epicsTimerStartTime
00005448 R epicsTypeToDBR_XXXX
000e6e2c T epicsVsnprintf
000cf748 T errPrintf
00006ad0 r errStrs$2389
000d07cc T errSymBld
000d09fc T errSymDump
000d0b28 T errSymLookup
00002188 D errSymTbl
000d0f1c T errSymTest
000d0de0 T errSymTestPrint
000d0750 T errSymbolAdd
00004088 B errVerbose
000d072c t errhash
000cf58c T errlogAddListener
000076c0 r errlogArg0
00007638 r errlogArgs
000d4e54 t errlogCallFunc
000ce940 t errlogExitHandler
000ceab8 T errlogFlush
00007590 r errlogFuncDef
000ced4c T errlogGetSevEnumString
000cecd0 T errlogGetSevToLog
000cea88 T errlogInit
000ce99c T errlogInit2
000076b0 r errlogInit2Arg0
000076b8 r errlogInit2Arg1
00007630 r errlogInit2Args
000d4e90 t errlogInit2CallFunc
00007584 r errlogInit2FuncDef
000076a8 r errlogInitArg0
0000762c r errlogInitArgs
000d4ec4 t errlogInitCallFunc
00007578 r errlogInitFuncDef
000cee84 t errlogInitPvt
000d051c T errlogMessage
0000408c b errlogOnceFlag$2768
000d02f4 T errlogPrintf
000cffd4 T errlogPrintfNoConsole
000d055c T errlogRemoveListeners
000cec30 T errlogSetConsole
000ced08 T errlogSetSevToLog
00002178 D errlogSevEnumString
000cfc90 T errlogSevPrintf
000cfad0 T errlogSevVprintf
000cf040 t errlogThread
000d00b0 T errlogVprintf
000cfeac T errlogVprintfNoConsole
000049e8 b errmsg
000040f4 b errnumlist
0003a5b8 t errorCount
00040a78 t eventCallback
000567ac t eventCallback
000627c8 t eventCallback
000567dc T eventNameToHandle
0005627c t eventOnce
0003a534 t eventProvider
00000670 D eventRSET
000231fc t eventRecordSizeOffset
00087ed4 t event_add_action
000876bc t event_cancel_reply
000006f0 b event_lock
000588b0 t event_remove
00059088 t event_task
00084fa4 t events_off_action
00084f70 t events_on_action
00040f68 t exceptionCallback
00063080 t exceptionCallback
0001ec7c t execOutput
         U exit
000d1e6c t exitCallFunc
0007dbc8 t exitDatabase
00004ac8 b exitEvent
0000744c r exitFuncDef
00004130 b exitLaterOnce
000d9cc0 t exitLaterOnceFunc
00004144 b exitLaterStatus
000da4c8 t exitNow
000002e4 b exitOnce
00004134 b exitPvtLock
0000413c b exitPvtOnce
000d9d28 t exitPvtOnceFunc
00004140 b exitPvtPerThread
         U exp
000d7eb0 t expand
00004a98 b fList
00004abc b fLock
         U fabs
000006c0 D fanoutRSET
00023a74 t fanoutRecordSizeOffset
         U fclose
         U fflush
         U fgets
0003df88 t filter
0003e1c0 t filter
0003e678 t filter
0003eba8 t filter
000641c8 t findBrkTable
000e4898 t findProvider
00010358 t findStateSet
0000c2a0 t findThread
0006cc24 t finishOutstream
         U fioFormatV
000d6c0c t first
00001514 d firstTime
0000151c d firstTime
00002704 d firstTime
0000148c d firstTime$2812
00001510 d firstTime$2882
000014b8 d firstTime$3096
000014e4 d firstTime$3754
00000198 d firstTime$3948
00004a34 b flag$2265
         U floor
         U fopen
         U fpTypeGet
         U fprintf
         U fputc
         U fputs
00007304 r frac_multiplier
         U free
0003e9c4 t freeArray
00047760 t freeArray
0006a1d0 t freeInstanceData
00004170 b freeList
000d131c T freeListCalloc
000d10f0 T freeListCleanup
000d104c T freeListFree
000d1380 T freeListInitPvt
000d0fc4 T freeListItemsAvail
000d1198 T freeListMalloc
00000b80 b freeListPvt
00002c58 b freeListPvt
000ea164 t freeNode
0003e338 t freePvt
0003ea1c t freePvt
0003edb4 t freePvt
00000b34 b functionList
         U fwrite
000e497c T generalTimeAddIntCurrentProvider
000e49e4 T generalTimeAddIntEventProvider
000e4268 T generalTimeCurrentProviderName
000e4284 T generalTimeEventProviderName
000e4344 T generalTimeGetErrorCounts
000e4dbc T generalTimeGetExceptPriority
000e42a0 T generalTimeHighestCurrentName
000e4bcc T generalTimeRegisterCurrentProvider
000e4ca4 T generalTimeRegisterEventProvider
000e43dc T generalTimeReport
00007708 r generalTimeReportArg0
0000765c r generalTimeReportArgs
000d4974 t generalTimeReportCallFunc
000075f0 r generalTimeReportFuncDef
000e4394 T generalTimeResetErrorCounts
000e4b8c T generalTime_Init
000e5270 t generalTime_InitOnce
00061a34 t getAttribEventCallback
0003ac6c t getCallback
0003b250 t getCallback
0003b834 t getCallback
0003be18 t getCallback
0003c3fc t getCallback
0003ca00 t getCallback
00054328 t getCallback
0004d734 t getCharChar
00049304 t getCharDouble
0004936c t getCharEnum
0004929c t getCharFloat
000491dc t getCharLong
0004911c t getCharShort
0004eab0 t getCharString
0004d688 t getCharUchar
0004923c t getCharUlong
0004917c t getCharUshort
0003a610 t getCurrentTime
00050a74 t getDeviceString
0004a614 t getDoubleChar
0004d0d0 t getDoubleDouble
0004a8cc t getDoubleEnum
0004dbb4 t getDoubleFloat
0004a7ec t getDoubleLong
0004a70c t getDoubleShort
0004de14 t getDoubleString
0004a690 t getDoubleUchar
0004a85c t getDoubleUlong
0004a77c t getDoubleUshort
0004a93c t getEnumChar
0004ac34 t getEnumDouble
0004d054 t getEnumEnum
0004abc4 t getEnumFloat
0004aaf4 t getEnumLong
0004aa24 t getEnumShort
0004fe6c t getEnumString
0004a9b0 t getEnumUchar
0004ab5c t getEnumUlong
0004aa8c t getEnumUshort
0004a27c t getFloatChar
0004a534 t getFloatDouble
0004a5a4 t getFloatEnum
0004d14c t getFloatFloat
0004a454 t getFloatLong
0004a374 t getFloatShort
0004e0d0 t getFloatString
0004a2f8 t getFloatUchar
0004a4c4 t getFloatUlong
0004a3e4 t getFloatUshort
00049c7c t getLongChar
00049ea4 t getLongDouble
00049f14 t getLongEnum
00049e34 t getLongFloat
0004d33c t getLongLong
00049d64 t getLongShort
0004e500 t getLongString
00049cf0 t getLongUchar
0004d2c0 t getLongUlong
00049dcc t getLongUshort
0005e178 t getMaxRangeValues
00050b68 t getMenuString
000e6f70 t getOssPriorityValue
0004967c t getShortChar
000498a4 t getShortDouble
00049914 t getShortEnum
00049834 t getShortFloat
00049764 t getShortLong
0004d52c t getShortShort
0004e6e4 t getShortString
000496f0 t getShortUchar
000497cc t getShortUlong
0004d4b0 t getShortUshort
0004fcd4 t getStringChar
00050370 t getStringDouble
0004f978 t getStringEnum
000507e0 t getStringFloat
0004f648 t getStringLong
0004f9a4 t getStringShort
00050c5c t getStringString
0004fb3c t getStringUchar
00050504 t getStringUlong
0004f7e0 t getStringUshort
0004d618 t getUcharChar
000495b4 t getUcharDouble
0004961c t getUcharEnum
0004954c t getUcharFloat
0004948c t getUcharLong
000493cc t getUcharShort
0004e8c8 t getUcharString
0004d5a8 t getUcharUchar
000494ec t getUcharUlong
0004942c t getUcharUshort
00049f7c t getUlongChar
0004a1a4 t getUlongDouble
0004a214 t getUlongEnum
0004a134 t getUlongFloat
0004d244 t getUlongLong
0004a064 t getUlongShort
0004e31c t getUlongString
00049ff0 t getUlongUchar
0004d1c8 t getUlongUlong
0004a0cc t getUlongUshort
0004997c t getUshortChar
00049ba4 t getUshortDouble
00049c14 t getUshortEnum
00049b34 t getUshortFloat
00049a64 t getUshortLong
0004d434 t getUshortShort
0004d9d0 t getUshortString
000499f0 t getUshortUchar
00049acc t getUshortUlong
0004d3b8 t getUshortUshort
00000a60 t get_alarm_double
00013758 t get_alarm_double
00015120 t get_alarm_double
00016ed4 t get_alarm_double
0001c614 t get_alarm_double
0001dfdc t get_alarm_double
00021c34 t get_alarm_double
000255a0 t get_alarm_double
000267c8 t get_alarm_double
0002fd48 t get_alarm_double
000313c4 t get_alarm_double
00034798 t get_alarm_double
000118c0 t get_array_info
00012804 t get_array_info
0001744c t get_array_info
00020910 t get_array_info
000241d8 t get_array_info
000279fc t get_array_info
000286cc t get_array_info
0002eab0 t get_array_info
00035fb4 t get_array_info
00036de0 t get_array_info
00000b98 t get_control_double
00011908 t get_control_double
0001284c t get_control_double
00013890 t get_control_double
00015258 t get_control_double
00017010 t get_control_double
0001b184 t get_control_double
0001c7b8 t get_control_double
0001e180 t get_control_double
00020984 t get_control_double
00021d6c t get_control_double
00024364 t get_control_double
00025664 t get_control_double
0002688c t get_control_double
0002fe80 t get_control_double
0003149c t get_control_double
0003493c t get_control_double
00036010 t get_control_double
00036e08 t get_control_double
0001a4a0 t get_enum_str
0001b38c t get_enum_str
0002975c t get_enum_str
0002bc0c t get_enum_str
0001a3dc t get_enum_strs
0001b2c8 t get_enum_strs
00029690 t get_enum_strs
0002bb28 t get_enum_strs
00000c64 t get_graphic_double
000119f8 t get_graphic_double
0001293c t get_graphic_double
0001395c t get_graphic_double
00015324 t get_graphic_double
00017040 t get_graphic_double
0001c89c t get_graphic_double
0001e274 t get_graphic_double
00020a44 t get_graphic_double
00021e2c t get_graphic_double
00024460 t get_graphic_double
0002572c t get_graphic_double
00026994 t get_graphic_double
0002ff64 t get_graphic_double
0003154c t get_graphic_double
00034a20 t get_graphic_double
00036148 t get_graphic_double
00036f40 t get_graphic_double
00016eac t get_inlinkNumber
0001c5ec t get_linkNumber
0001dfb4 t get_linkNumber
00034770 t get_linkNumber
00016ec0 t get_outlinkNumber
00000d24 t get_precision
00011ae8 t get_precision
00012a2c t get_precision
00013a28 t get_precision
000153f0 t get_precision
00017140 t get_precision
0001b508 t get_precision
0001c9b0 t get_precision
0001e3b8 t get_precision
00020b04 t get_precision
00021ef4 t get_precision
0002455c t get_precision
00030048 t get_precision
00031654 t get_precision
00034b34 t get_precision
0003627c t get_precision
00037078 t get_precision
00000d70 t get_units
00011b5c t get_units
00012aa0 t get_units
00013a9c t get_units
00015494 t get_units
00017248 t get_units
0001b490 t get_units
0001ca9c t get_units
0001e4d8 t get_units
00020b78 t get_units
00021f68 t get_units
00024624 t get_units
000257f4 t get_units
00026a5c t get_units
000300bc t get_units
00031750 t get_units
00034c20 t get_units
000362f0 t get_units
000370ec t get_units
         U getcwd
         U getenv
         U gethostname
0006e52c t getpMessage
         U getpeername
000087c0 t getq_cp
         U getsockname
         U getsockopt
0008e238 T gft
000051bc r gftArg0
00005044 r gftArgs
0008c5c4 t gftCallFunc
00004ecc r gftFuncDef
0000027c b globalLock
00000208 b globals
         U gmtime_r
000d1908 T gphAdd
000d1788 T gphDelete
000d15e0 T gphDump
000d143c T gphDumpFP
000d1cac T gphFind
000d1b28 T gphFindParse
000d162c T gphFreeMem
000d1d20 T gphInitPvt
0000411c b gphPvt
000041a8 b gtPvt
00004100 b hashtable
00001c8c T hello
00000190 r helloArg0
00000154 d helloArgs
00001cf4 t helloCallFunc
00000184 r helloFuncDef
00001c50 t helloRegister
0000749c r helpArg0
000026d0 d helpArgs
000d1fb0 t helpCallFunc
00007458 r helpFuncDef
000f6118 t hexToDigit
00004134 r hex_digit_to_ascii
000072f4 r hex_digit_to_ascii
0003a560 t highestProvider
00000710 D histogramRSET
00024e48 t histogramRecordSizeOffset
0000075c D histogramSDELprecision
00004a28 b hookList
00004a44 b hookLock
         U hostGetByAddr
         U hostGetByName
000e531c T hostToIPAddr
00086c8c t host_name_action
00000254 b id
000e8c34 t ifreqNext
000e8c10 t ifreqSize
000525fc t inherit_severity
000388d8 t init
00038afc t init
0003a9c4 t init
0003afa8 t init
0003b58c t init
0003bb70 t init
0003c154 t init
0003c754 t init
00004a80 b init$6699
0003d498 t initAllow
00017c74 t initFields
00063eec T initHookAnnounce
00063e3c T initHookFree
00063dfc t initHookInit
00063d90 T initHookName
00064074 t initHookOnce
000640b4 T initHookRegister
000d93d8 t initIPAddr
00001d24 t initTraceRegister
0003a450 t init_ai
0003a354 t init_bo
00029560 t init_common
0002ba18 t init_common
0003a270 t init_li
0003db74 t init_lsi
0003d66c t init_lso
0003d62c t init_printf
00000db0 t init_record
000019b8 t init_record
00011f70 t init_record
00012ec4 t init_record
0001458c t init_record
000160cc t init_record
00017de4 t init_record
0001a95c t init_record
0001bafc t init_record
0001d314 t init_record
0001f5dc t init_record
00020d1c t init_record
000224f4 t init_record
00023104 t init_record
00023a30 t init_record
00024c8c t init_record
00025ea4 t init_record
00027030 t init_record
00027e8c t init_record
00028cc0 t init_record
00029ed8 t init_record
0002b068 t init_record
0002c418 t init_record
0002d97c t init_record
0002f5ac t init_record
0003078c t init_record
00031bf4 t init_record
000333f8 t init_record
00033f94 t init_record
000352a4 t init_record
000365f8 t init_record
00037604 t init_record
00037fcc t init_record
00038098 t init_record
000382b0 t init_record
0003842c t init_record
000384c4 t init_record
00038614 t init_record
00038790 t init_record
000389fc t init_record
00038a40 t init_record
00038d8c t init_record
00038e9c t init_record
00039024 t init_record
000390f0 t init_record
000391f0 t init_record
00039340 t init_record
000394cc t init_record
00039670 t init_record
000397fc t init_record
00039910 t init_record
00039994 t init_record
000399dc t init_record
00039be8 t init_record
00039d3c t init_record
00039f04 t init_record
0003a8ec t init_record
0003aed0 t init_record
0003b4b4 t init_record
0003ba98 t init_record
0003c07c t init_record
0003c67c t init_record
0003a154 t init_si
0003db34 t init_stringin
0003d5ec t init_stringout
00002718 d initflag$2189
00089354 T initializePutNotifyFreeList
000040f0 b initialized
00000b94 b inputFileList
000e4a4c t insertProvider
000e4d7c T installLastResortEventProvider
000d4948 t installLastResortEventProviderCallFunc
000075fc r installLastResortEventProviderFuncDef
         U intContext
         U intLock
         U intUnlock
0000028c B interruptAccept
0007ed74 T iocBuild
0008d288 t iocBuildCallFunc
000053f4 r iocBuildFuncDef
0007ec34 T iocBuildIsolated
00002bc4 b iocBuildMode
0007e168 t iocBuild_1
0007e7e0 t iocBuild_2
0007de9c t iocBuild_3
0007ee4c T iocInit
0008d2b4 t iocInitCallFunc
000053e8 r iocInitFuncDef
00004124 b iocLogClient
000d5384 t iocLogClientInit
00004120 B iocLogDisable
00007690 r iocLogDisableArg0
00007620 r iocLogDisableArgs
000d46b4 t iocLogDisableCallFunc
00007554 r iocLogDisableFuncDef
000d55a0 T iocLogFlush
000d54f0 T iocLogInit
000d4f54 t iocLogInitCallFunc
00007548 r iocLogInitFuncDef
000d56d8 T iocLogPrefix
000076c8 r iocLogPrefixArg0
0000763c r iocLogPrefixArgs
000d4e24 t iocLogPrefixCallFunc
0000759c r iocLogPrefixFuncDef
000d555c T iocLogShow
00007698 r iocLogShowArg0
00007624 r iocLogShowArgs
000d4f24 t iocLogShowCallFunc
00007560 r iocLogShowFuncDef
0007def0 T iocPause
0008d230 t iocPauseCallFunc
0000540c r iocPauseFuncDef
0007dfe0 T iocRun
0008d25c t iocRunCallFunc
00005400 r iocRunFuncDef
0007da6c T iocShutdown
00002bc0 b iocState
000d3da8 T iocsh
000d2d08 t iocshBody
000d3ca4 T iocshCmd
000074a4 r iocshCmdArg0
000026d4 d iocshCmdArgs
000d3cd4 t iocshCmdCallFunc
00007464 r iocshCmdFuncDef
000026a4 d iocshCmdID
00004108 b iocshCommandHead
000d2348 T iocshEnvClear
000d23b4 T iocshFree
000d1e70 t iocshInit
000d3d04 T iocshLoad
000074ac r iocshLoadArg0
000074b4 r iocshLoadArg1
000026d8 d iocshLoadArgs
000d3d74 t iocshLoadCallFunc
00007470 r iocshLoadFuncDef
00004114 b iocshMacroHandleId
000d1f24 t iocshOnce
00004110 b iocshOnceId
00004104 B iocshPpdbbase
000d3dd8 T iocshRegister
0007eeb4 T iocshRegisterCommon
000d40ac T iocshRegisterVariable
000d3c24 T iocshRun
000074bc r iocshRunArg0
000074c4 r iocshRunArg1
000026e0 d iocshRunArgs
000d3c70 t iocshRunCallFunc
0000747c r iocshRunFuncDef
0008d180 t iocshSystemCommand
000d1eb0 t iocshTableLock
0000410c b iocshTableMutex
000d1f7c t iocshTableUnlock
000026c0 d iocshVarID
00004118 b iocshVariableHead
         U ioctl
00056734 t ioscanCallback
000562bc t ioscanInit
0005623c t ioscanOnce
000006f4 b ioscan_lock
000e595c T ipAddrToA
000ddd64 t ipAddrToAsciiEngineGlobalMutexConstruct
0000414c b ipAddrToAsciiEngineGlobalMutexOnceFlag
000e56e0 T ipAddrToDottedIP
000e536c T ipAddrToHostName
00001edc d is_not_inited
         U isspace
0007d810 t iterateRecords
000e4ff8 t lastResortGetEvent
000002ac b last_lset
00000810 b last_tabsize$4837
         U ledClose
         U ledOpen
         U ledRead
0000114c d li_channels
000d46c4 T libComRegister
000017e4 b line_num
000020c8 d line_num
00000b44 b listLock
         U listen
         U loadModule
00002bfc B localHostNameCache
         U localtime_r
00004a24 b lock$5544
00004a10 b lock$5752
00000284 b lockRecordAlloc
00000258 b lockSetList
00000280 b lockSetModifyLock
         U log
         U log10
000875c0 t logBadIdWithFileAndLineno
000d5bd4 t logClientClose
000d57ac T logClientCreate
000d5cb0 t logClientDestroy
000d60a8 T logClientFlush
000d54c4 T logClientInit
00004128 b logClientPrefix
000d626c t logClientRestart
000d6a94 T logClientSend
000d6b90 T logClientSendMessage
000d55e0 T logClientShow
         U logMsg
0003d940 t logPrintf
00085a30 t log_header
00080d28 t log_one_client
00000768 D longinRSET
00026014 t longinRecordSizeOffset
000007b8 D longoutRSET
000271b4 t longoutRecordSizeOffset
000d6e50 t lookup
00004ac4 b loopEvent
000002a0 b lset_stack
00000298 B lset_stack_count
00000808 D lsiRSET
00028070 t lsiRecordSizeOffset
00000858 D lsoRSET
00028ec4 t lsoRecordSizeOffset
00004a8c b mList
00004ab8 b mLock
000d8440 T macCreateHandle
000d87f4 T macDefExpand
000d72f0 T macDeleteHandle
000d89a0 T macEnvExpand
000d829c T macExpandString
000d85e8 T macGetValue
00000b84 b macHandle
00002c5c b macHandle
000d89d0 T macInstallMacros
000d8b48 T macParseDefns
000d71a4 T macPopScope
000d6ff8 T macPushScope
000d7428 T macPutValue
000d8070 T macReportMacros
000d6bcc T macSuppressWarning
00000b88 b mac_input_buffer
00002c60 b mac_input_buffer
00000b68 B makeDbdDepends
         U malloc
000d98d0 T mallocMustSucceed
000028cc r mapDBFToDBR
000028ec r mapDBFToDBR
00002e64 r mapDBFtoDCT
000008f8 D mbbiDirectRSET
0002b224 t mbbiDirectRecordSizeOffset
000008a8 D mbbiRSET
0002a054 t mbbiRecordSizeOffset
00000998 D mbboDirectRSET
0002db90 t mbboDirectRecordSizeOffset
00000948 D mbboRSET
0002c67c t mbboRecordSizeOffset
         U memFindMax
         U memcmp
         U memcpy
         U memmove
         U memset
0008d0dc T miscIocRegister
         U mktime
00002660 r modeEnum
00002830 r modeEnum
000009d4 b msg_Buff$4308
000008f4 b msg_Buff$4353
00000814 b msg_Buff$4388
00000730 b msg_Buff$4441
000cf444 t msgbufGetFree
000ceda8 t msgbufGetNode
000cf3c8 t msgbufSetSize
0000286c r msstring
00002e40 r msstring
00004164 b mutexList
00001b54 t myAsubInit
00001b00 t myAsubProcess
0003de04 t myCallback
0001bd34 t myCallbackFunc
00000e10 d myDsxt
00000e6c d myDsxt
000c6f50 t myInputFunction
0003eea0 t myMemberCallback
00000218 b myStructFreeList
0000021c b myStructFreeList
00000220 b myStructFreeList
00000004 C mySubDebug
00001bfc t mySubInit
00001ba8 t mySubProcess
00000b7c b my_buffer
00002c94 b my_buffer
00000b90 b my_buffer_ptr
00002c98 b my_buffer_ptr
00004050 b my_yyinput
000002cc b nPeriodic
0005af68 t nameToAddr
00002e2c r names$6638
00004a0c b nepicsThreadPrivate
000ea20c t newNode
00001ce8 d newOverflow$4763
000d6c14 t next
00002c08 B noopIIU
000073fc t nothing
0000a69c t nothing
0000cc20 t nothing
0000d3dc t nothing
0000e1b8 t nothing
0000f070 t nothing
00010350 t nothing
0005eea0 t notify
00055a54 t notifyCallback
0005474c t notifyCleanup
00002710 d ntp_daemon
00001ec0 R nullPvSys
00001ec8 R nullPvVar
00007b20 r okToBlockNo
00004158 b okToBlockOnce
00004150 B okToBlockPrivate
00007b1c r okToBlockYes
000049e4 b oldmsg
000e69a4 t once
00000b40 b onceFlag$2154
000041a4 b onceId
000049f4 b onceId
00004ad8 b onceId
00004b18 b onceId
000002c8 b onceId$4628
000002c4 b onceId$4696
000002dc b onceQ
00001ce4 d onceQueueSize
000002d8 b onceSem
00058014 t onceTask
000002e0 b onceTaskId
0000698c r opcodes$2396
         U open
00073328 t openOutstream
000d2b94 t openRedirect
00006b08 r operands
00006ed8 r operators
000025c0 r opts
00002678 r opts
00002710 r opts
000049ec b osdMaxBlockOnceler
000049f0 b osdMaxBlockSize
000e8ae4 T osdNTPGet
000e8a34 T osdNTPInit
000e87a4 T osdNTPReport
000e61cc t osdSufficentSpaceInPoolInit
000e6238 t osdSufficentSpaceInPoolPoll
000e6198 t osdSufficentSpaceInPoolQuery
000e80a4 T osdThreadHooksRun
000e7f1c T osdThreadHooksRunMain
000e8b50 T osiGetUserName
000e8c70 T osiLocalAddr
000e5310 T osiSockAttach
000e8fa4 T osiSockDiscoverBroadcastAddresses
000e5318 T osiSockRelease
000e8b48 T osiSpawnDetachedProcess
000e611c T osiSufficentSpaceInPool
000e6ed8 t outRoutine
000013c0 d outStreams
00002bd4 b pCACChannelPrivate
00000004 C pCaBucket
0000415c b pCurrentMutexLevel
00004078 b pEPICSSigletonMutex
00007b24 r pEpicsTimeVersion
00007b9c r pErrStr$6606
00007b98 r pErrStr$6656
00004138 b pExitPvtPerProcess
00002e3c r pNullString
0000592c r pVersionCAC
00000224 b pacf
000026f0 d pairs$2164
00001d78 D pamapdbfType
00001e40 D pamaplinkType
00001df8 D pamapspcType
000002e8 b papPeriodic
00004a08 b papTSD
0006a33c t parse_abort
0006a884 t parse_boolean
0006a9f4 t parse_double
0006a220 t parse_end
00069c70 t parse_end_map
0006aba4 t parse_integer
0006a3c0 t parse_map_key
0003e040 t parse_ok
0003e3a4 t parse_ok
0003ed60 t parse_ok
0006ad74 t parse_start
00069c68 t parse_start_map
0006a5c0 t parse_string
00004074 b pasTrapWritePvt
00002c50 B pasbase
00002c64 b pasbasenew
00000b78 b pdbbase
00000288 B pdbbase
00004084 b pdbmfPvt
00058164 t periodicTask
000002ec b periodicTaskId
000009e8 D permissiveRSET
0002e530 t permissiveRecordSizeOffset
000002f0 b pevent_list
0008e4c4 T pft
000051c4 r pftArg0
000051cc r pftArg1
00005048 r pftArgs
0008c590 t pftCallFunc
00004ed8 r pftFuncDef
00001468 d pif
00001494 d pif
000014c0 d pif
000014ec d pif
0007d920 t piniProcess
0007d9a4 t piniProcessHook
00000b8c b pinputFileNow
000002c0 b pioscan_list
0006a0ec t plugin_free
000002bc b pnotifyGlobal
00076b28 t popFirstTemp
00056134 T postEvent
0000523c r postEventArg0
00005084 r postEventArgs
0008c388 t postEventCallFunc
00004f50 r postEventFuncDef
000561e8 T post_event
000cab58 T postfix
         U pow
00002e50 r ppstring
00004158 r precision
0000019c D prim_type_name
000001e0 D prim_type_tag_name
0005b570 t printBuffer
000906cc T printChannelAccessAddressList
00056a60 t printList
0000ad44 t printValue
0000af10 T print_channel_value
         U printf
00000a38 D printfRSET
0002f6b4 t printfRecordSizeOffset
0000296c r priorityName
00001cfc d priorityValue
0000f7a8 t proc_db_events
00000e90 t process
00011c90 t process
00012bd4 t process
00013c8c t process
00015ad4 t process
0001778c t process
0001a5a4 t process
0001b6c0 t process
0001cc98 t process
0001ee10 t process
00020d94 t process
00021fd0 t process
00022e84 t process
000237cc t process
00024a1c t process
0002585c t process
00026bec t process
00027bb4 t process
00028990 t process
00029964 t process
0002ac90 t process
0002c058 t process
0002d600 t process
0002e42c t process
0002eb84 t process
00030124 t process
000319bc t process
00032af8 t process
00033134 t process
00033c94 t process
00034e14 t process
0003642c t process
00037278 t process
00031d14 t processCallback
000318fc t processNextLink
00055174 t processNotifyCommon
00004a4c b pserverAddr
0000022c b psubstitutions
000017c0 b pthisDevSup
00054470 t putCallback
0008e1fc t putCallback
0004cfe0 t putCharChar
0004aeb4 t putCharDouble
0004af24 t putCharEnum
0004ae44 t putCharFloat
0004ad74 t putCharLong
0004aca4 t putCharShort
0004e9b0 t putCharString
0004cf6c t putCharUchar
0004addc t putCharUlong
0004ad0c t putCharUshort
0005f890 t putComplete
0004c1bc t putDoubleChar
0004c984 t putDoubleDouble
0004c464 t putDoubleEnum
0004dabc t putDoubleFloat
0004c384 t putDoubleLong
0004c2a4 t putDoubleShort
0004dcac t putDoubleString
0004c230 t putDoubleUchar
0004c3f4 t putDoubleUlong
0004c314 t putDoubleUshort
0004c4d4 t putEnumChar
0004c7bc t putEnumDouble
0004c904 t putEnumEnum
0004c74c t putEnumFloat
0004c67c t putEnumLong
0004c5ac t putEnumShort
0004d7e0 t putEnumString
0004c540 t putEnumUchar
0004c6e4 t putEnumUlong
0004c614 t putEnumUshort
0004be34 t putFloatChar
0004c0dc t putFloatDouble
0004c14c t putFloatEnum
0004ca04 t putFloatFloat
0004bffc t putFloatLong
0004bf1c t putFloatShort
0004df70 t putFloatString
0004bea8 t putFloatUchar
0004c06c t putFloatUlong
0004bf8c t putFloatUshort
0004b854 t putLongChar
0004ba6c t putLongDouble
0004badc t putLongEnum
0004b9fc t putLongFloat
0004cc04 t putLongLong
0004b92c t putLongShort
0004e408 t putLongString
0004b8c0 t putLongUchar
0004cb84 t putLongUlong
0004b994 t putLongUshort
0006895c T putNotifyCompletion
00084438 t putNotifyErrorReply
0006885c T putNotifyPut
0006f7f4 t putParmString
0004b274 t putShortChar
0004b48c t putShortDouble
0004b4fc t putShortEnum
0004b41c t putShortFloat
0004b34c t putShortLong
0004ce04 t putShortShort
0004e5ec t putShortString
0004b2e0 t putShortUchar
0004b3b4 t putShortUlong
0004cd84 t putShortUshort
0004f17c t putStringChar
0004f2f0 t putStringDevice
000500b8 t putStringDouble
0004ff24 t putStringEnum
00050688 t putStringFloat
0004eba0 t putStringLong
0004f498 t putStringMenu
0004ee90 t putStringShort
00050964 t putStringString
0004f008 t putStringUchar
00050210 t putStringUlong
0004ed18 t putStringUshort
0004cef8 t putUcharChar
0004b19c t putUcharDouble
0004b20c t putUcharEnum
0004b12c t putUcharFloat
0004b05c t putUcharLong
0004af8c t putUcharShort
0004e7d0 t putUcharString
0004ce84 t putUcharUchar
0004b0c4 t putUcharUlong
0004aff4 t putUcharUshort
0004bb44 t putUlongChar
0004bd5c t putUlongDouble
0004bdcc t putUlongEnum
0004bcec t putUlongFloat
0004cb04 t putUlongLong
0004bc1c t putUlongShort
0004e224 t putUlongString
0004bbb0 t putUlongUchar
0004ca84 t putUlongUlong
0004bc84 t putUlongUshort
0004b564 t putUshortChar
0004b77c t putUshortDouble
0004b7ec t putUshortEnum
0004b70c t putUshortFloat
0004b63c t putUshortLong
0004cd04 t putUshortShort
0004d8d8 t putUshortString
0004b5d0 t putUshortUchar
0004b6a4 t putUshortUlong
0004cc84 t putUshortUshort
000118e8 t put_array_info
0001282c t put_array_info
0001735c t put_array_info
00020948 t put_array_info
000279c8 t put_array_info
00028698 t put_array_info
00035ff4 t put_array_info
000371b8 t put_array_info
0001a344 t put_enum_str
0001b228 t put_enum_str
000295ac t put_enum_str
0002ba64 t put_enum_str
00020850 t put_value
         U putenv
000089cc t putq_cp
0000fe70 t putq_cp
         U puts
00010ee8 t pvCaConnectionHandler
00010c24 t pvCaEventHandler
00010e80 t pvCaGetHandler
00010db0 t pvCaMonitorHandler
00010e18 t pvCaPutHandler
00047d34 t pvNameLookup
000115c8 T pvSysAttach
0001176c T pvSysCreate
000116a8 T pvSysFlush
000108b0 T pvTimeGetCurrentDouble
00011490 T pvVarCreate
0001134c T pvVarDestroy
000111f8 T pvVarGetCallback
00010954 T pvVarGetCount
00010984 T pvVarMonitorOff
00010ab4 T pvVarMonitorOn
00010f48 T pvVarPutCallback
000110ac T pvVarPutNoBlock
00007440 t pv_call_failure
00001f88 R pv_severity_offsets
00001ee0 R pv_sizes
00001fa0 R pv_stamp_offsets
00001f70 R pv_status_offsets
00001d18 r pv_type_map
00001f40 R pv_value_offsets
00001f10 R pv_value_sizes
00000510 D pvar_double_boHIGHlimit
000005c8 D pvar_double_calcoutODLYlimit
00000b38 D pvar_double_seqDLYlimit
00000d34 D pvar_dset_devAaiSoft
00000d50 D pvar_dset_devAaoSoft
000010dc D pvar_dset_devAiGeneralTime
00000d70 D pvar_dset_devAiSoft
00001180 D pvar_dset_devAiSoftCallback
00000d90 D pvar_dset_devAiSoftRaw
00000db0 D pvar_dset_devAoSoft
0000125c D pvar_dset_devAoSoftCallback
00000dd0 D pvar_dset_devAoSoftRaw
00000e0c D pvar_dset_devBiDbState
00000dec D pvar_dset_devBiSoft
000011a4 D pvar_dset_devBiSoftCallback
00000e08 D pvar_dset_devBiSoftRaw
00000e68 D pvar_dset_devBoDbState
000010f8 D pvar_dset_devBoGeneralTime
00000e48 D pvar_dset_devBoSoft
00001278 D pvar_dset_devBoSoftCallback
00000e64 D pvar_dset_devBoSoftRaw
00000ea4 D pvar_dset_devCalcoutSoft
00001294 D pvar_dset_devCalcoutSoftCallback
00000ec0 D pvar_dset_devEventSoft
00000ee0 D pvar_dset_devHistogramSoft
00001114 D pvar_dset_devLiGeneralTime
00000efc D pvar_dset_devLiSoft
000011c8 D pvar_dset_devLiSoftCallback
00000f18 D pvar_dset_devLoSoft
000012b0 D pvar_dset_devLoSoftCallback
00001420 D pvar_dset_devLsiEnviron
00000f34 D pvar_dset_devLsiSoft
00000f50 D pvar_dset_devLsoSoft
000012cc D pvar_dset_devLsoSoftCallback
00001394 D pvar_dset_devLsoStdio
00000f6c D pvar_dset_devMbbiDirectSoft
000011ec D pvar_dset_devMbbiDirectSoftCallback
00000f88 D pvar_dset_devMbbiDirectSoftRaw
00000fa4 D pvar_dset_devMbbiSoft
00001210 D pvar_dset_devMbbiSoftCallback
00000fc0 D pvar_dset_devMbbiSoftRaw
00000fdc D pvar_dset_devMbboDirectSoft
00001304 D pvar_dset_devMbboDirectSoftCallback
00000ff8 D pvar_dset_devMbboDirectSoftRaw
00001014 D pvar_dset_devMbboSoft
000012e8 D pvar_dset_devMbboSoftCallback
00001030 D pvar_dset_devMbboSoftRaw
0000104c D pvar_dset_devPrintfSoft
00001320 D pvar_dset_devPrintfSoftCallback
000013b0 D pvar_dset_devPrintfStdio
00001068 D pvar_dset_devSASoft
00001424 D pvar_dset_devSiEnviron
00001130 D pvar_dset_devSiGeneralTime
00001084 D pvar_dset_devSiSoft
00001234 D pvar_dset_devSiSoftCallback
000010a0 D pvar_dset_devSoSoft
0000133c D pvar_dset_devSoSoftCallback
000013b4 D pvar_dset_devSoStdio
0000135c D pvar_dset_devTimestampAI
00001378 D pvar_dset_devTimestampSI
000010bc D pvar_dset_devWfSoft
00000138 D pvar_dset_devXxxSoft
00000364 D pvar_func_aSubRecordSizeOffset
00000224 D pvar_func_aaiRecordSizeOffset
00000274 D pvar_func_aaoRecordSizeOffset
000002c4 D pvar_func_aiRecordSizeOffset
00000314 D pvar_func_aoRecordSizeOffset
000014bc D pvar_func_arrInitialize
00001450 D pvar_func_asSub
0000045c D pvar_func_biRecordSizeOffset
000004b0 D pvar_func_boRecordSizeOffset
00000514 D pvar_func_calcRecordSizeOffset
00000568 D pvar_func_calcoutRecordSizeOffset
000005cc D pvar_func_compressRecordSizeOffset
00001490 D pvar_func_dbndInitialize
0000061c D pvar_func_dfanoutRecordSizeOffset
0000066c D pvar_func_eventRecordSizeOffset
000006bc D pvar_func_fanoutRecordSizeOffset
00000150 D pvar_func_helloRegister
0000070c D pvar_func_histogramRecordSizeOffset
00000158 D pvar_func_initTraceRegister
00001f04 D pvar_func_iocshSystemCommand
00000764 D pvar_func_longinRecordSizeOffset
000007b4 D pvar_func_longoutRecordSizeOffset
00000804 D pvar_func_lsiRecordSizeOffset
00000854 D pvar_func_lsoRecordSizeOffset
000008f4 D pvar_func_mbbiDirectRecordSizeOffset
000008a4 D pvar_func_mbbiRecordSizeOffset
00000994 D pvar_func_mbboDirectRecordSizeOffset
00000944 D pvar_func_mbboRecordSizeOffset
000009e4 D pvar_func_permissiveRecordSizeOffset
00000a34 D pvar_func_printfRecordSizeOffset
00000148 D pvar_func_register_func_myAsubInit
0000014c D pvar_func_register_func_myAsubProcess
00000140 D pvar_func_register_func_mySubInit
00000144 D pvar_func_register_func_mySubProcess
00000a84 D pvar_func_selRecordSizeOffset
00000ad8 D pvar_func_seqRecordSizeOffset
00000194 D pvar_func_sncExampleRegistrar
00000b3c D pvar_func_stateRecordSizeOffset
00000b8c D pvar_func_stringinRecordSizeOffset
00000bdc D pvar_func_stringoutRecordSizeOffset
00000c7c D pvar_func_subArrayRecordSizeOffset
00000c2c D pvar_func_subRecordSizeOffset
000014e8 D pvar_func_syncInitialize
00001464 D pvar_func_tsInitialize
00000ccc D pvar_func_waveformRecordSizeOffset
000000d0 D pvar_func_xxxRecordSizeOffset
00001518 D pvar_int_asCaDebug
00002700 D pvar_int_atExitDebug
00000504 D pvar_int_boHIGHprecision
000005bc D pvar_int_calcoutODLYprecision
00001cf4 D pvar_int_callbackParallelThreadsDefault
00001ebc D pvar_int_dbBptNotMonotonic
00001ec0 D pvar_int_dbQuietMacroWarnings
00001eb8 D pvar_int_dbRecordsOnceOnly
00001ed8 D pvar_int_dbTemplateMaxVars
00001ee8 D pvar_int_dbThreadRealtimeLock
00000760 D pvar_int_histogramSDELprecision
0000013c D pvar_int_mySubDebug
00000b2c D pvar_int_seqDLYprecision
000003b0 D pvar_rset_aSubRSET
00000270 D pvar_rset_aaiRSET
000002c0 D pvar_rset_aaoRSET
00000310 D pvar_rset_aiRSET
00000360 D pvar_rset_aoRSET
000004a8 D pvar_rset_biRSET
000004fc D pvar_rset_boRSET
00000560 D pvar_rset_calcRSET
000005b4 D pvar_rset_calcoutRSET
00000618 D pvar_rset_compressRSET
00000668 D pvar_rset_dfanoutRSET
000006b8 D pvar_rset_eventRSET
00000708 D pvar_rset_fanoutRSET
00000758 D pvar_rset_histogramRSET
000007b0 D pvar_rset_longinRSET
00000800 D pvar_rset_longoutRSET
00000850 D pvar_rset_lsiRSET
000008a0 D pvar_rset_lsoRSET
00000940 D pvar_rset_mbbiDirectRSET
000008f0 D pvar_rset_mbbiRSET
000009e0 D pvar_rset_mbboDirectRSET
00000990 D pvar_rset_mbboRSET
00000a30 D pvar_rset_permissiveRSET
00000a80 D pvar_rset_printfRSET
00000ad0 D pvar_rset_selRSET
00000b24 D pvar_rset_seqRSET
00000b88 D pvar_rset_stateRSET
00000bd8 D pvar_rset_stringinRSET
00000c28 D pvar_rset_stringoutRSET
00000cc8 D pvar_rset_subArrayRSET
00000c78 D pvar_rset_subRSET
00000d18 D pvar_rset_waveformRSET
0000011c D pvar_rset_xxxRSET
00004090 b pvtData
000d50e8 t pwdCallFunc
00007500 r pwdFuncDef
         U qsort
00002350 r range_stat$4359
00002288 r range_stat$4572
00002100 r range_stat$4587
000d6ce0 t rawval
         U read
00037ef8 t read_aai
00088f00 t read_action
00038110 t read_ai
0003837c t read_ai
0003a0b8 t read_ai
0003a684 t read_ai
0003d390 t read_ai
00038544 t read_bi
000386e0 t read_bi
00038838 t read_bi
0003ad4c t read_bi
00038c5c t read_event
00038e58 t read_histogram
00039fb8 t read_li
0003b330 t read_li
00038f68 t read_longin
0003dbb4 t read_lsi
00039270 t read_mbbi
0003940c t read_mbbi
000395a0 t read_mbbi
0003973c t read_mbbi
0003bef8 t read_mbbi
0003b914 t read_mbbiDirect
00088dd0 t read_notify_action
00085458 t read_reply
00039a9c t read_sa
0003a004 t read_si
0003c4dc t read_si
00039138 t read_string
00039c60 t read_stringin
0003d400 t read_stringin
0003da84 t read_stringin
00083b78 t read_sync_reply
00039e44 t read_wf
0000195c t read_xxx
0007a864 t realToString
         U realloc
00000ab4 B recGblAlarmHook
0005e2dc T recGblCheckDeadband
0005ea48 T recGblDbaddrError
0005e6a0 T recGblFwdLink
0005e134 T recGblGetAlarmDouble
0005e26c T recGblGetControlDouble
0005e2a4 T recGblGetGraphicDouble
0005e0f0 T recGblGetPrec
0005e57c T recGblGetTimeStamp
0005e854 T recGblInitConstantLink
0005e888 T recGblRecSupError
0005e9bc T recGblRecordError
0005e72c T recGblResetAlarms
0005e154 T recGblSetSevr
0005e4e0 T recGblTSELwasModified
0000000c r recordTypeNames
         U recv
         U recvfrom
0007f458 T registerDevices
0007f36c T registerDrivers
0007f544 T registerRecordTypes
00001a4c t register_func_myAsubInit
00001a10 t register_func_myAsubProcess
00001ac4 t register_func_mySubInit
00001a88 t register_func_mySubProcess
000d459c T registryAdd
000d44f4 T registryChange
0007f11c T registryDeviceSupportAdd
0007f0e4 T registryDeviceSupportFind
0007f80c t registryDeviceSupportFindCallFunc
00004968 r registryDeviceSupportFindFuncDef
0007f194 T registryDriverSupportAdd
0007f15c T registryDriverSupportFind
0007f7bc t registryDriverSupportFindCallFunc
00004974 r registryDriverSupportFindFuncDef
000d42f0 T registryDump
000d4f80 t registryDumpCallFunc
0000753c r registryDumpFuncDef
000d4408 T registryFind
000d4334 T registryFree
0007f1d4 T registryFunctionAdd
0007f2dc T registryFunctionFind
0007f76c t registryFunctionFindCallFunc
00004980 r registryFunctionFindFuncDef
0007f214 T registryFunctionRefAdd
00004954 r registryID
00004958 r registryID
000d4384 t registryInit
0007f6e0 T registryIocRegister
0007f0a4 T registryRecordTypeAdd
0007f06c T registryRecordTypeFind
0007f85c t registryRecordTypeFindCallFunc
0000495c r registryRecordTypeFindFuncDef
000d4644 T registrySetTableSize
00004990 r registryXxxFindArg0
0000498c r registryXxxFindArgs
         U remCurIdGet
0009078c T removeDuplicateAddresses
00000b10 b removesOutstanding
00005c98 r repeaterSubscribeTimerPeriod
00083140 t req_server
00020c10 t reset
0003a5e4 t resetErrors
000547a4 t restartCheck
00002ae8 r rights$4385
000587f4 t ringSpace
0000017c r rrddArg0
000000cc d rrddArgs
00000a28 t rrddCallFunc
00000000 r rrddFuncDef
00000004 C rsrvChanFreeList
00000004 C rsrvChannelCount
00083a40 T rsrvCheckPut
00000004 C rsrvClientFreeList
00000004 C rsrvCurrentClient
00000004 C rsrvEventFreeList
000847f4 T rsrvFreePutNotify
0008d3b0 T rsrvGetUInt16
0008d2f4 T rsrvGetUInt32
0008a358 T rsrvIocRegister
00000004 C rsrvLargeBufFreeListTCP
00000004 C rsrvPutNotifyFreeList
000839e4 T rsrvSizeOfPutNotify
00000004 C rsrvSizeofLargeBufTCP
00000004 C rsrvSmallBufFreeListTCP
000893dc T rsrv_extra_labor
00081a84 T rsrv_init
0008a00c T rsrv_online_notify_task
0007f8d0 T rsrv_pause
0007f8ac T rsrv_run
00001eec d rsrv_server
00083a84 T rsrv_version_reply
00000000 b rtl
000575a4 T scanAdd
000585b0 T scanCleanup
000002d4 b scanCtl
000571d0 T scanDelete
0005780c T scanInit
000562fc T scanIoInit
00056064 T scanIoRequest
00055f34 T scanIoSetComplete
0005645c t scanList
00055f50 T scanOnce
00055f40 T scanOnceSetQueueSize
00005224 r scanOnceSetQueueSizeArg0
00005078 r scanOnceSetQueueSizeArgs
0008c42c t scanOnceSetQueueSizeCallFunc
00004f2c r scanOnceSetQueueSizeFuncDef
00055e58 T scanPause
00055eb0 T scanPeriod
00055e0c T scanRun
00057ef0 T scanStop
00056d7c T scanpel
00005234 r scanpelArg0
00005080 r scanpelArgs
0008c3c8 t scanpelCallFunc
00004f44 r scanpelFuncDef
00056c18 T scanpiol
0008c35c t scanpiolCallFunc
00004f5c r scanpiolFuncDef
00056ef0 T scanppl
0000522c r scanpplArg0
0000507c r scanpplArgs
0008c3f8 t scanpplCallFunc
00004f38 r scanpplFuncDef
00084304 t search_fail_reply
00085bb4 t search_reply_tcp
00085e9c t search_reply_udp
000020f8 d seed
00000a88 D selRSET
00030874 t selRecordSizeOffset
         U semBCreate
         U semDelete
         U semGive
         U semMCreate
         U semShow
         U semTake
         U send
000d6834 t sendMessageChunk
00085158 t send_err
         U sendto
0000d70c T seq
00010480 T seqAddProg
00001cd0 r seqArg0
00001cd8 r seqArg1
00001ce0 r seqArg2
00001cac r seqArgs
0000c5b0 t seqCallFunc
0000b704 T seqChanShow
00001d00 r seqChanShowArg0
00001d08 r seqChanShowArg1
00001cc4 r seqChanShowArgs
0000c348 t seqChanShowCallFunc
00001c94 r seqChanShowFuncDef
00000b30 D seqDLYlimit
00000b28 D seqDLYprecision
00010448 T seqDelProg
00010540 T seqFindProg
000104f8 T seqFindStateSet
00001c64 r seqFuncDef
0000b1e4 T seqGatherStats
0000c8f4 t seqInitPvt
0000c570 t seqLazyInit
0000ab60 T seqMacEval
0000a6c0 T seqMacFree
0000a7a8 T seqMacParse
0000aac0 T seqMacValGet
00000204 b seqOnceFlag$3818
0000b104 t seqQryFind
0000d1f0 T seqQueueCreate
0000d174 T seqQueueDestroy
0000cd88 T seqQueueElemSize
0000cd90 T seqQueueFlush
0000ccac T seqQueueFree
0000d13c T seqQueueGet
0000cff4 T seqQueueGetF
0000cc28 T seqQueueInvariant
0000cd18 T seqQueueIsEmpty
0000cd40 T seqQueueIsFull
0000cd80 T seqQueueNumElems
0000cfbc T seqQueuePut
0000cdf0 T seqQueuePutF
0000b570 T seqQueueShow
00001cf0 r seqQueueShowArg0
00001cbc r seqQueueShowArgs
0000c4dc t seqQueueShowCallFunc
00001c7c r seqQueueShowFuncDef
0000ccec T seqQueueUsed
00000adc D seqRSET
00031e40 t seqRecordSizeOffset
0000c19c T seqRegisterSequencerCommands
0000c984 T seqRegisterSequencerProgram
0000bc30 T seqShow
00001ce8 r seqShowArg0
00001cb8 r seqShowArgs
0000c3f0 t seqShowCallFunc
00001c70 r seqShowFuncDef
0000b2e4 t seqShowSP
0000e32c T seqStop
00001cf8 r seqStopArg0
00001cc0 r seqStopArgs
0000c448 t seqStopCallFunc
00001c88 r seqStopFuncDef
000104b8 T seqTraverseProg
0000f078 T seq_camonitor
0000f2ac T seq_conn_handler
0000ff94 T seq_connect
0000794c T seq_delay
0000f588 T seq_disconnect
00007f54 T seq_efClear
00008080 T seq_efInit
00008228 T seq_efSet
00008c04 T seq_efTest
00008a84 T seq_efTestAndClear
0000fc00 T seq_event_handler
000077dc T seq_exit
0000d3e4 T seq_free
00007838 T seq_macValueGet
00007868 T seq_optGet
00007520 T seq_pvArrayConnected
00007d70 T seq_pvArrayGetCancel
0000a1c0 T seq_pvArrayGetComplete
000090c4 T seq_pvArrayMonitor
00007a58 T seq_pvArrayPutCancel
00007ad4 T seq_pvArrayPutComplete
00008fec T seq_pvArrayStopMonitor
00008330 T seq_pvArraySync
0000919c T seq_pvAssign
000074a4 T seq_pvAssignCount
000095a8 T seq_pvAssignSubst
000075d0 T seq_pvAssigned
0000748c T seq_pvChannelCount
00007498 T seq_pvConnectCount
000074b0 T seq_pvConnected
00007600 T seq_pvCount
00008e34 T seq_pvFlush
00007dec T seq_pvFlushQ
0000a660 T seq_pvGet
00007cec T seq_pvGetCancel
0000a048 T seq_pvGetComplete
000085a8 T seq_pvGetQ
0000a2c8 T seq_pvGetTmo
0000775c T seq_pvMessage
00009164 T seq_pvMonitor
00007634 T seq_pvName
0000a00c T seq_pvPut
000079d4 T seq_pvPutCancel
00007cc0 T seq_pvPutComplete
00009ac8 T seq_pvPutTmo
000076e0 T seq_pvSeverity
00008e78 t seq_pvSingleMonitor
00007664 T seq_pvStatus
0000908c T seq_pvStopMonitor
00008574 T seq_pvSync
00008d6c T seq_pvTimeStamp
0000b26c T seqcar
00001d10 r seqcarArg0
00001ccc r seqcarArgs
0000c270 t seqcarCallFunc
0000af50 t seqcarCollect
00001ca0 r seqcarFuncDef
000040b8 t seqg_action_ssOnOff_0_OffAmpZero
00002ce0 t seqg_action_ssOnOff_0_OffInit
00002b78 t seqg_action_ssOnOff_0_OffOpenGridLoop
000048fc t seqg_action_ssOnOff_0_OnAmpCoefficUp1
00004744 t seqg_action_ssOnOff_0_OnAmpCoefficUp2
0000458c t seqg_action_ssOnOff_0_OnAmpCoefficUp3
000032f4 t seqg_action_ssOnOff_0_OnAmpFF
00005098 t seqg_action_ssOnOff_0_OnAmpPoint
00003458 t seqg_action_ssOnOff_0_OnCloseAmpLoop
00003888 t seqg_action_ssOnOff_0_OnCloseGridTune
0000302c t seqg_action_ssOnOff_0_OnClosePhaseLoop
000039ec t seqg_action_ssOnOff_0_OnCloseTuneLoop
00004ee0 t seqg_action_ssOnOff_0_OnGridTuneISet
00005c60 t seqg_action_ssOnOff_0_OnInit
00005250 t seqg_action_ssOnOff_0_OnInit2
00003e48 t seqg_action_ssOnOff_0_OnModify
00002e48 t seqg_action_ssOnOff_0_OnPhaseFF
00003b50 t seqg_action_ssOnOff_0_OnReset
000042f0 t seqg_action_ssOnOff_0_OnTuneComplexI
00003724 t seqg_action_ssOnOff_0_OnTuneFF
00003190 t seqg_action_ssOnOff_0_OnTuneFFAgain
00004ab4 t seqg_action_ssOnOff_0_OnTuneISet
000035bc t seqg_action_ssOnOff_0_OnTuneMOff
00002a9c t seqg_action_ssOnOff_0_standBy
000001c4 r seqg_chans
00001f4c t seqg_event_ssOnOff_0_OffAmpZero
00002030 t seqg_event_ssOnOff_0_OffInit
00001fbc t seqg_event_ssOnOff_0_OffOpenGridLoop
00002350 t seqg_event_ssOnOff_0_OnAmpCoefficUp1
000022dc t seqg_event_ssOnOff_0_OnAmpCoefficUp2
00002268 t seqg_event_ssOnOff_0_OnAmpCoefficUp3
000023c4 t seqg_event_ssOnOff_0_OnAmpFF
00002774 t seqg_event_ssOnOff_0_OnAmpPoint
000024a4 t seqg_event_ssOnOff_0_OnCloseAmpLoop
0000268c t seqg_event_ssOnOff_0_OnCloseGridTune
00002110 t seqg_event_ssOnOff_0_OnClosePhaseLoop
00002700 t seqg_event_ssOnOff_0_OnCloseTuneLoop
00002514 t seqg_event_ssOnOff_0_OnGridTuneISet
000028c8 t seqg_event_ssOnOff_0_OnInit
00001e48 t seqg_event_ssOnOff_0_OnInit2
00002858 t seqg_event_ssOnOff_0_OnModify
000020a4 t seqg_event_ssOnOff_0_OnPhaseFF
000027e8 t seqg_event_ssOnOff_0_OnReset
000021f4 t seqg_event_ssOnOff_0_OnTuneComplexI
0000261c t seqg_event_ssOnOff_0_OnTuneFF
00002180 t seqg_event_ssOnOff_0_OnTuneFFAgain
00002434 t seqg_event_ssOnOff_0_OnTuneISet
00002584 t seqg_event_ssOnOff_0_OnTuneMOff
00002938 t seqg_event_ssOnOff_0_standBy
000073bc t seqg_init
00000200 b seqg_initvar_devNo$2786
00001bcc r seqg_mask_ssOnOff_0_OffAmpZero
00001ba4 r seqg_mask_ssOnOff_0_OffInit
00001bb8 r seqg_mask_ssOnOff_0_OffOpenGridLoop
00001b18 r seqg_mask_ssOnOff_0_OnAmpCoefficUp1
00001b2c r seqg_mask_ssOnOff_0_OnAmpCoefficUp2
00001b40 r seqg_mask_ssOnOff_0_OnAmpCoefficUp3
00001b04 r seqg_mask_ssOnOff_0_OnAmpFF
00001a64 r seqg_mask_ssOnOff_0_OnAmpPoint
00001adc r seqg_mask_ssOnOff_0_OnCloseAmpLoop
00001a8c r seqg_mask_ssOnOff_0_OnCloseGridTune
00001b7c r seqg_mask_ssOnOff_0_OnClosePhaseLoop
00001a78 r seqg_mask_ssOnOff_0_OnCloseTuneLoop
00001ac8 r seqg_mask_ssOnOff_0_OnGridTuneISet
00001a14 r seqg_mask_ssOnOff_0_OnInit
00001a28 r seqg_mask_ssOnOff_0_OnInit2
00001a3c r seqg_mask_ssOnOff_0_OnModify
00001b90 r seqg_mask_ssOnOff_0_OnPhaseFF
00001a50 r seqg_mask_ssOnOff_0_OnReset
00001b54 r seqg_mask_ssOnOff_0_OnTuneComplexI
00001aa0 r seqg_mask_ssOnOff_0_OnTuneFF
00001b68 r seqg_mask_ssOnOff_0_OnTuneFFAgain
00001af0 r seqg_mask_ssOnOff_0_OnTuneISet
00001ab4 r seqg_mask_ssOnOff_0_OnTuneMOff
00001a00 r seqg_mask_ssOnOff_0_standBy
00001760 r seqg_states_ssOnOff
00001754 r seqg_statesets
0000ecf0 T sequencer
00000b58 b serverList
0000000c C servers
00070a58 t setLinkType
         U setsockopt
0001079c t sevrFromCA
00080b80 t showChanList
000d28ec t showError
         U shutdown
00001134 d si_channels
         U sin
         U sinh
000028a4 r size$4939
0000a6a4 t skipBlanks
0000015c D sncExample
00007378 t sncExampleRegistrar
00002708 d sntp_sync_task
         U sntpcTimeGet
000e5690 T sockAddrAreIdentical
000e5a54 T sockAddrToA
000e5830 T sockAddrToDottedIP
         U socket
00000294 b spcAsCallback
00013b38 t special
00015530 t special
00017684 t special
0001cb74 t special
0001e620 t special
00020c98 t special
00022e08 t special
00024790 t special
00027b48 t special
00028818 t special
00029834 t special
0002bd8c t special
0002d32c t special
00034cf8 t special
         U sprintf
         U sqrt
0000e8a0 t ss_entry
0000e7e0 t ss_read_all_buffer
0000e874 T ss_read_buffer
0000e76c T ss_read_buffer_selective
0000e584 t ss_read_buffer_static
0000e1c0 T ss_wakeup
0000e374 T ss_write_buffer
         U sscanf
00007ba0 r stackSizeTable
000e95a8 t stackTraceInit
00004a84 b stackTraceInitId
00004a88 b stackTraceMtx
000d247c t startRedirect
000002d0 b startStopEvent
00000b08 b startStopEvent
00000b2c b startStopEvent
000107e8 t statFromCA
00000b40 D stateRSET
00032bfc t stateRecordSizeOffset
00000b4c b states
0003d9ac t stderrPrintf
000049f8 b stderrThreadPrivateId
000049fc b stdinThreadPrivateId
00004a00 b stdoutThreadPrivateId
000d29e4 t stopRedirect
         U strcat
         U strchr
         U strcmp
         U strcpy
00002c9c b stream
         U strerror
         U strftime
00000b90 D stringinRSET
00033570 t stringinRecordSizeOffset
00000be0 D stringoutRSET
00034120 t stringoutRecordSizeOffset
         U strlen
         U strncmp
         U strncpy
         U strpbrk
         U strrchr
         U strspn
         U strstr
         U strtod
         U strtol
000f399c T strtoll
         U strtoul
000f3d44 T strtoull
00000c80 D subArrayRSET
00036798 t subArrayRecordSizeOffset
00000c30 D subRSET
00035470 t subRecordSizeOffset
000017cc b sub_collect
000017f0 b sub_count
000017e8 b sub_locals
         U symFindByName
0000218c d symTbl
00002194 d symbols
0003ea94 t syncInitialize
         U sysBootLine
         U sysClkRateGet
         U sysSymTbl
         U system
00005428 r systemArg0
00005424 r systemArgs
0008d0ac t systemCallFunc
000053dc r systemFuncDef
00004aa4 b tList
00004ab4 b tLock
         U tan
         U tanh
         U taskDelay
00004a1c b taskIdList
         U taskIdListGet
00004a04 B taskIdListSize
         U taskIdSelf
         U taskIsSuspended
         U taskLock
         U taskName
         U taskNameToId
         U taskPriorityGet
         U taskPrioritySet
         U taskResume
         U taskShow
         U taskSpawn
         U taskSuspend
         U taskUnlock
         U taskVarAdd
         U taskVarDelete
000ea594 T taskwdAnyInsert
000ea400 T taskwdAnyRemove
000ea3c0 T taskwdInit
000eab84 T taskwdInsert
000ea82c T taskwdMonitorAdd
000ea6b8 T taskwdMonitorDel
000ea91c T taskwdRemove
000e9eec T taskwdShow
000076e0 r taskwdShowArg0
00007648 r taskwdShowArgs
000d4be4 t taskwdShowCallFunc
000075c0 r taskwdShowFuncDef
00004a4c r tcpJumpTable
00083f60 t tcp_echo_action
00084fd8 t tcp_version_action
00000ba4 b tempList
000076d8 r threadArg0
00007644 r threadArgs
000d4c44 t threadCallFunc
000075b4 r threadFuncDef
000e7f50 t threadHookInit
000e81a0 t threadHookOnce
00002ad0 r threadNamePrefix
00004a28 b threadOnceComplete$5572
00002adc r threadPriority
00000014 C threadPrios
00000238 b threadid
         U tickGet
0003a58c t timeProvider
00000b00 b timerQueue
00004acc B timerQueueMgrEPICS
00007418 r tmsg$2506
0008dee0 T tpn
000051fc r tpnArg0
00005204 r tpnArg1
00005064 r tpnArgs
0008c4c0 t tpnCallFunc
00004f08 r tpnFuncDef
00055990 t tpnThread
0008e080 t tpnThread
00001dfc t trace
00001dd0 t traceInitFunc
00000198 r traceInitFuncDef
00001d60 T traceIocInit
000d7690 t trans
000103b8 t traverseInstances
0000c7a0 T traverseSequencerPrograms
000819b8 t tryBind
0003deec t tsInitialize
000cf6b8 t tvsnPrint
00004ac0 b twdCtl
000ead44 t twdInitOnce
00004ab0 b twdOnceFlag$2421
000eae98 t twdShutdown
000eaef4 t twdTask
00010824 t typeToCA
000049dc r udpJumpTable
000840d8 t udp_echo_action
00083a04 t udp_version_action
0007a798 t ulongToHexString
00002868 r unknown$3952
0000cc78 t used
0000b4a0 t userInput
000d27d0 t varCallFunc
000074cc r varCmdArg0
000074d4 r varCmdArg1
000026e8 d varCmdArgs
00007488 r varFuncDef
000d25c4 t varHandler
000017ec b var_count
00000000 d vardefs
000017c8 b vars
         U vfprintf
         U vxAtomicDec
         U vxAtomicInc
         U vxTas
00009624 t wait_complete
00000cd0 D waveformRSET
000377fc t waveformRecordSizeOffset
0003f49c t wdCallback
00024930 t wdogCallback
0002469c t wdogInit
00000b14 b workList
00000b24 b workListEvent
00000b20 b workListLock
0003e3c4 t wrapArrayIndices
00001d2c d wrapper_fif
000159ac t writeValue
0001b598 t writeValue
0001e9c4 t writeValue
00026ac4 t writeValue
00028884 t writeValue
0002bf50 t writeValue
0002d4f8 t writeValue
00033b6c t writeValue
00038044 t write_aao
00088a58 t write_action
000384cc t write_ao
00038508 t write_ao
0003cae0 t write_ao
00038a04 t write_bo
00038a48 t write_bo
00038a94 t write_bo
00039f7c t write_bo
0003cbc0 t write_bo
00038c20 t write_calcout
0003cca0 t write_calcout
000390f8 t write_longout
0003cd80 t write_longout
0003d4e8 t write_lso
000398d0 t write_mbbo
00039940 t write_mbbo
0003999c t write_mbbo
00039a0c t write_mbbo
0003cfa8 t write_mbbo
0003d088 t write_mbbo
00088300 t write_notify_action
0008457c t write_notify_done_callback
00084710 t write_notify_put_callback
0003d544 t write_printf
00039234 t write_string
00039a60 t write_string
0003ce60 t write_string
0003d168 t write_string
00039e08 t write_stringout
0003d2b0 t write_stringout
0003d5a0 t write_stringout
000000d4 D xxxRSET
00001244 t xxxRecordSizeOffset
000f0274 T yajl_alloc
000f0748 T yajl_buf_alloc
000f05ec T yajl_buf_append
000f04e0 T yajl_buf_clear
000f04fc T yajl_buf_data
000f0568 T yajl_buf_free
000f0504 T yajl_buf_len
000f050c T yajl_buf_truncate
000f1d9c T yajl_do_parse
000f01ec T yajl_free
000f011c T yajl_free_error
000f0104 T yajl_get_bytes_consumed
000f014c T yajl_get_error
000f0480 t yajl_internal_free
000f04b0 t yajl_internal_malloc
000f044c t yajl_internal_realloc
000f1cfc T yajl_lex_alloc
000f0884 T yajl_lex_current_char
000f087c T yajl_lex_current_line
000f07b0 T yajl_lex_error_to_string
000f1ca8 T yajl_lex_free
000f0864 T yajl_lex_get_error
000f088c T yajl_lex_lex
000f1be4 T yajl_lex_peek
000f0188 T yajl_parse
000f01b4 T yajl_parse_complete
000f28c0 T yajl_render_error_string
000f041c T yajl_set_default_alloc_funcs
000f00ac T yajl_status_to_string
000f61d0 T yajl_string_decode
000f671c T yajl_string_encode
000f6558 T yajl_string_encode2
00000ba0 b yyAbort
00002c84 b yyAsg
00002c88 b yyAsgRule
00000bb0 b yyFailed
00002c6c b yyFailed
00002c80 b yyHag
00002c7c b yyUag
00003a84 r yy_accept
000046f4 r yy_accept
000065e4 r yy_accept
00003c9c r yy_base
000047ba r yy_base
000066a8 r yy_base
00000bb8 b yy_c_buf_p
000017d8 b yy_c_buf_p
00002c74 b yy_c_buf_p
00003d9a r yy_chk
00004814 r yy_chk
00006700 r yy_chk
00074e24 t yy_create_buffer
0007ba1c t yy_create_buffer
000c72f0 t yy_create_buffer
0000179c b yy_current_buffer
00002ba0 b yy_current_buffer
00004054 b yy_current_buffer
00003b7a r yy_def
00004746 r yy_def
00006636 r yy_def
000017b8 b yy_did_buffer_switch_on_eof
00002bbc b yy_did_buffer_switch_on_eof
00004070 b yy_did_buffer_switch_on_eof
00003984 r yy_ec
000045f4 r yy_ec
000064e4 r yy_ec
0007477c t yy_get_previous_state
0007b778 t yy_get_previous_state
000c3c90 t yy_get_previous_state
000017a0 b yy_hold_char
00002ba4 b yy_hold_char
00004058 b yy_hold_char
00001ec8 d yy_init
00001ee0 d yy_init
000020d0 d yy_init
000748fc t yy_init_buffer
0007b8f8 t yy_init_buffer
000c3e24 t yy_init_buffer
000017b4 b yy_last_accepting_cpos
00002bb8 b yy_last_accepting_cpos
0000406c b yy_last_accepting_cpos
000017b0 b yy_last_accepting_state
00002bb4 b yy_last_accepting_state
00004068 b yy_last_accepting_state
000748b8 t yy_load_buffer_state
0007b8b4 t yy_load_buffer_state
000c3de0 t yy_load_buffer_state
00003c78 r yy_meta
000047a0 r yy_meta
00006690 r yy_meta
000017a4 b yy_n_chars
00002ba8 b yy_n_chars
0000405c b yy_n_chars
00003ef6 r yy_nxt
000048b4 r yy_nxt
000067ba r yy_nxt
00000bb4 b yy_start
000017dc b yy_start
00002c70 b yy_start
00000bd0 b yychar
000017fc b yychar
00002ca8 b yychar
00003268 r yycheck
00004344 r yycheck
00005eec r yycheck
00002fe4 r yydefred
0000423c r yydefred
00005d94 r yydefred
00003940 r yydgoto
000045d2 r yydgoto
000064ae r yydgoto
00000bcc b yyerrflag
000017f8 b yyerrflag
00002ca4 b yyerrflag
00074940 t yyerror
0007b93c t yyerror
000c6eb8 t yyerror
00074b20 t yyerrorAbort
000038fe r yygindex
000045b0 r yygindex
00006478 r yygindex
00000bbc b yyin
000017d0 b yyin
00002c78 b yyin
000037f6 r yylen
00004504 r yylen
000063c4 r yylen
000017ac b yyleng
00002bb0 b yyleng
00004064 b yyleng
00075cd8 t yylex
0007bd70 t yylex
000c75f4 t yylex
0000387a r yylhs
0000455a r yylhs
0000641e r yylhs
00000be0 b yylval
00001810 b yylval
00002cc0 b yylval
00000bc8 b yynerrs
000017f4 b yynerrs
00002ca0 b yynerrs
00000bc4 b yyout
000017e0 b yyout
00002c8c b yyout
000770c0 t yyparse
000036b4 r yyrindex
00004480 r yyrindex
00006318 r yyrindex
00003126 r yysindex
000042c0 r yysindex
00005e40 r yysindex
00000be4 b yyss
00001818 b yyss
00002cc8 b yyss
00000bd4 b yyssp
00001800 b yyssp
00002cac b yyssp
0000348e r yytable
000043e2 r yytable
00006102 r yytable
000017a8 b yytext
00002bac b yytext
00004060 b yytext
00000bdc b yyval
00001808 b yyval
00002cb8 b yyval
00000fcc b yyvs
00001c00 b yyvs
000030b0 b yyvs
00000bd8 b yyvsp
00001804 b yyvsp
00002cb0 b yyvsp
0006b56c t zeroDbentry
